
main:     file format elf64-x86-64


Disassembly of section .init:

0000000000001000 <_init>:
    1000:	f3 0f 1e fa          	endbr64 
    1004:	48 83 ec 08          	sub    $0x8,%rsp
    1008:	48 8b 05 d9 8f 00 00 	mov    0x8fd9(%rip),%rax        # 9fe8 <__gmon_start__>
    100f:	48 85 c0             	test   %rax,%rax
    1012:	74 02                	je     1016 <_init+0x16>
    1014:	ff d0                	callq  *%rax
    1016:	48 83 c4 08          	add    $0x8,%rsp
    101a:	c3                   	retq   

Disassembly of section .plt:

0000000000001020 <.plt>:
    1020:	ff 35 0a 8f 00 00    	pushq  0x8f0a(%rip)        # 9f30 <_GLOBAL_OFFSET_TABLE_+0x8>
    1026:	f2 ff 25 0b 8f 00 00 	bnd jmpq *0x8f0b(%rip)        # 9f38 <_GLOBAL_OFFSET_TABLE_+0x10>
    102d:	0f 1f 00             	nopl   (%rax)
    1030:	f3 0f 1e fa          	endbr64 
    1034:	68 00 00 00 00       	pushq  $0x0
    1039:	f2 e9 e1 ff ff ff    	bnd jmpq 1020 <.plt>
    103f:	90                   	nop
    1040:	f3 0f 1e fa          	endbr64 
    1044:	68 01 00 00 00       	pushq  $0x1
    1049:	f2 e9 d1 ff ff ff    	bnd jmpq 1020 <.plt>
    104f:	90                   	nop
    1050:	f3 0f 1e fa          	endbr64 
    1054:	68 02 00 00 00       	pushq  $0x2
    1059:	f2 e9 c1 ff ff ff    	bnd jmpq 1020 <.plt>
    105f:	90                   	nop
    1060:	f3 0f 1e fa          	endbr64 
    1064:	68 03 00 00 00       	pushq  $0x3
    1069:	f2 e9 b1 ff ff ff    	bnd jmpq 1020 <.plt>
    106f:	90                   	nop
    1070:	f3 0f 1e fa          	endbr64 
    1074:	68 04 00 00 00       	pushq  $0x4
    1079:	f2 e9 a1 ff ff ff    	bnd jmpq 1020 <.plt>
    107f:	90                   	nop
    1080:	f3 0f 1e fa          	endbr64 
    1084:	68 05 00 00 00       	pushq  $0x5
    1089:	f2 e9 91 ff ff ff    	bnd jmpq 1020 <.plt>
    108f:	90                   	nop
    1090:	f3 0f 1e fa          	endbr64 
    1094:	68 06 00 00 00       	pushq  $0x6
    1099:	f2 e9 81 ff ff ff    	bnd jmpq 1020 <.plt>
    109f:	90                   	nop
    10a0:	f3 0f 1e fa          	endbr64 
    10a4:	68 07 00 00 00       	pushq  $0x7
    10a9:	f2 e9 71 ff ff ff    	bnd jmpq 1020 <.plt>
    10af:	90                   	nop
    10b0:	f3 0f 1e fa          	endbr64 
    10b4:	68 08 00 00 00       	pushq  $0x8
    10b9:	f2 e9 61 ff ff ff    	bnd jmpq 1020 <.plt>
    10bf:	90                   	nop
    10c0:	f3 0f 1e fa          	endbr64 
    10c4:	68 09 00 00 00       	pushq  $0x9
    10c9:	f2 e9 51 ff ff ff    	bnd jmpq 1020 <.plt>
    10cf:	90                   	nop
    10d0:	f3 0f 1e fa          	endbr64 
    10d4:	68 0a 00 00 00       	pushq  $0xa
    10d9:	f2 e9 41 ff ff ff    	bnd jmpq 1020 <.plt>
    10df:	90                   	nop
    10e0:	f3 0f 1e fa          	endbr64 
    10e4:	68 0b 00 00 00       	pushq  $0xb
    10e9:	f2 e9 31 ff ff ff    	bnd jmpq 1020 <.plt>
    10ef:	90                   	nop
    10f0:	f3 0f 1e fa          	endbr64 
    10f4:	68 0c 00 00 00       	pushq  $0xc
    10f9:	f2 e9 21 ff ff ff    	bnd jmpq 1020 <.plt>
    10ff:	90                   	nop
    1100:	f3 0f 1e fa          	endbr64 
    1104:	68 0d 00 00 00       	pushq  $0xd
    1109:	f2 e9 11 ff ff ff    	bnd jmpq 1020 <.plt>
    110f:	90                   	nop
    1110:	f3 0f 1e fa          	endbr64 
    1114:	68 0e 00 00 00       	pushq  $0xe
    1119:	f2 e9 01 ff ff ff    	bnd jmpq 1020 <.plt>
    111f:	90                   	nop
    1120:	f3 0f 1e fa          	endbr64 
    1124:	68 0f 00 00 00       	pushq  $0xf
    1129:	f2 e9 f1 fe ff ff    	bnd jmpq 1020 <.plt>
    112f:	90                   	nop
    1130:	f3 0f 1e fa          	endbr64 
    1134:	68 10 00 00 00       	pushq  $0x10
    1139:	f2 e9 e1 fe ff ff    	bnd jmpq 1020 <.plt>
    113f:	90                   	nop

Disassembly of section .plt.got:

0000000000001140 <__cxa_finalize@plt>:
    1140:	f3 0f 1e fa          	endbr64 
    1144:	f2 ff 25 7d 8e 00 00 	bnd jmpq *0x8e7d(%rip)        # 9fc8 <__cxa_finalize@GLIBC_2.2.5>
    114b:	0f 1f 44 00 00       	nopl   0x0(%rax,%rax,1)

Disassembly of section .plt.sec:

0000000000001150 <_ZSt17__throw_bad_allocv@plt>:
    1150:	f3 0f 1e fa          	endbr64 
    1154:	f2 ff 25 e5 8d 00 00 	bnd jmpq *0x8de5(%rip)        # 9f40 <_ZSt17__throw_bad_allocv@GLIBCXX_3.4>
    115b:	0f 1f 44 00 00       	nopl   0x0(%rax,%rax,1)

0000000000001160 <__cxa_begin_catch@plt>:
    1160:	f3 0f 1e fa          	endbr64 
    1164:	f2 ff 25 dd 8d 00 00 	bnd jmpq *0x8ddd(%rip)        # 9f48 <__cxa_begin_catch@CXXABI_1.3>
    116b:	0f 1f 44 00 00       	nopl   0x0(%rax,%rax,1)

0000000000001170 <_ZSt20__throw_length_errorPKc@plt>:
    1170:	f3 0f 1e fa          	endbr64 
    1174:	f2 ff 25 d5 8d 00 00 	bnd jmpq *0x8dd5(%rip)        # 9f50 <_ZSt20__throw_length_errorPKc@GLIBCXX_3.4>
    117b:	0f 1f 44 00 00       	nopl   0x0(%rax,%rax,1)

0000000000001180 <memset@plt>:
    1180:	f3 0f 1e fa          	endbr64 
    1184:	f2 ff 25 cd 8d 00 00 	bnd jmpq *0x8dcd(%rip)        # 9f58 <memset@GLIBC_2.2.5>
    118b:	0f 1f 44 00 00       	nopl   0x0(%rax,%rax,1)

0000000000001190 <__cxa_atexit@plt>:
    1190:	f3 0f 1e fa          	endbr64 
    1194:	f2 ff 25 c5 8d 00 00 	bnd jmpq *0x8dc5(%rip)        # 9f60 <__cxa_atexit@GLIBC_2.2.5>
    119b:	0f 1f 44 00 00       	nopl   0x0(%rax,%rax,1)

00000000000011a0 <_ZdlPv@plt>:
    11a0:	f3 0f 1e fa          	endbr64 
    11a4:	f2 ff 25 bd 8d 00 00 	bnd jmpq *0x8dbd(%rip)        # 9f68 <_ZdlPv@GLIBCXX_3.4>
    11ab:	0f 1f 44 00 00       	nopl   0x0(%rax,%rax,1)

00000000000011b0 <_ZStlsISt11char_traitsIcEERSt13basic_ostreamIcT_ES5_PKc@plt>:
    11b0:	f3 0f 1e fa          	endbr64 
    11b4:	f2 ff 25 b5 8d 00 00 	bnd jmpq *0x8db5(%rip)        # 9f70 <_ZStlsISt11char_traitsIcEERSt13basic_ostreamIcT_ES5_PKc@GLIBCXX_3.4>
    11bb:	0f 1f 44 00 00       	nopl   0x0(%rax,%rax,1)

00000000000011c0 <_Znwm@plt>:
    11c0:	f3 0f 1e fa          	endbr64 
    11c4:	f2 ff 25 ad 8d 00 00 	bnd jmpq *0x8dad(%rip)        # 9f78 <_Znwm@GLIBCXX_3.4>
    11cb:	0f 1f 44 00 00       	nopl   0x0(%rax,%rax,1)

00000000000011d0 <_ZNSolsEPFRSoS_E@plt>:
    11d0:	f3 0f 1e fa          	endbr64 
    11d4:	f2 ff 25 a5 8d 00 00 	bnd jmpq *0x8da5(%rip)        # 9f80 <_ZNSolsEPFRSoS_E@GLIBCXX_3.4>
    11db:	0f 1f 44 00 00       	nopl   0x0(%rax,%rax,1)

00000000000011e0 <__stack_chk_fail@plt>:
    11e0:	f3 0f 1e fa          	endbr64 
    11e4:	f2 ff 25 9d 8d 00 00 	bnd jmpq *0x8d9d(%rip)        # 9f88 <__stack_chk_fail@GLIBC_2.4>
    11eb:	0f 1f 44 00 00       	nopl   0x0(%rax,%rax,1)

00000000000011f0 <_ZNKSt8__detail20_Prime_rehash_policy14_M_need_rehashEmmm@plt>:
    11f0:	f3 0f 1e fa          	endbr64 
    11f4:	f2 ff 25 95 8d 00 00 	bnd jmpq *0x8d95(%rip)        # 9f90 <_ZNKSt8__detail20_Prime_rehash_policy14_M_need_rehashEmmm@GLIBCXX_3.4.18>
    11fb:	0f 1f 44 00 00       	nopl   0x0(%rax,%rax,1)

0000000000001200 <__cxa_rethrow@plt>:
    1200:	f3 0f 1e fa          	endbr64 
    1204:	f2 ff 25 8d 8d 00 00 	bnd jmpq *0x8d8d(%rip)        # 9f98 <__cxa_rethrow@CXXABI_1.3>
    120b:	0f 1f 44 00 00       	nopl   0x0(%rax,%rax,1)

0000000000001210 <_ZNSt8ios_base4InitC1Ev@plt>:
    1210:	f3 0f 1e fa          	endbr64 
    1214:	f2 ff 25 85 8d 00 00 	bnd jmpq *0x8d85(%rip)        # 9fa0 <_ZNSt8ios_base4InitC1Ev@GLIBCXX_3.4>
    121b:	0f 1f 44 00 00       	nopl   0x0(%rax,%rax,1)

0000000000001220 <memmove@plt>:
    1220:	f3 0f 1e fa          	endbr64 
    1224:	f2 ff 25 7d 8d 00 00 	bnd jmpq *0x8d7d(%rip)        # 9fa8 <memmove@GLIBC_2.2.5>
    122b:	0f 1f 44 00 00       	nopl   0x0(%rax,%rax,1)

0000000000001230 <__cxa_end_catch@plt>:
    1230:	f3 0f 1e fa          	endbr64 
    1234:	f2 ff 25 75 8d 00 00 	bnd jmpq *0x8d75(%rip)        # 9fb0 <__cxa_end_catch@CXXABI_1.3>
    123b:	0f 1f 44 00 00       	nopl   0x0(%rax,%rax,1)

0000000000001240 <_ZNSolsEi@plt>:
    1240:	f3 0f 1e fa          	endbr64 
    1244:	f2 ff 25 6d 8d 00 00 	bnd jmpq *0x8d6d(%rip)        # 9fb8 <_ZNSolsEi@GLIBCXX_3.4>
    124b:	0f 1f 44 00 00       	nopl   0x0(%rax,%rax,1)

0000000000001250 <_Unwind_Resume@plt>:
    1250:	f3 0f 1e fa          	endbr64 
    1254:	f2 ff 25 65 8d 00 00 	bnd jmpq *0x8d65(%rip)        # 9fc0 <_Unwind_Resume@GCC_3.0>
    125b:	0f 1f 44 00 00       	nopl   0x0(%rax,%rax,1)

Disassembly of section .text:

0000000000001260 <_start>:
    1260:	f3 0f 1e fa          	endbr64 
    1264:	31 ed                	xor    %ebp,%ebp
    1266:	49 89 d1             	mov    %rdx,%r9
    1269:	5e                   	pop    %rsi
    126a:	48 89 e2             	mov    %rsp,%rdx
    126d:	48 83 e4 f0          	and    $0xfffffffffffffff0,%rsp
    1271:	50                   	push   %rax
    1272:	54                   	push   %rsp
    1273:	4c 8d 05 86 3e 00 00 	lea    0x3e86(%rip),%r8        # 5100 <__libc_csu_fini>
    127a:	48 8d 0d 0f 3e 00 00 	lea    0x3e0f(%rip),%rcx        # 5090 <__libc_csu_init>
    1281:	48 8d 3d c1 00 00 00 	lea    0xc1(%rip),%rdi        # 1349 <main>
    1288:	ff 15 52 8d 00 00    	callq  *0x8d52(%rip)        # 9fe0 <__libc_start_main@GLIBC_2.2.5>
    128e:	f4                   	hlt    
    128f:	90                   	nop

0000000000001290 <deregister_tm_clones>:
    1290:	48 8d 3d 81 8d 00 00 	lea    0x8d81(%rip),%rdi        # a018 <__TMC_END__>
    1297:	48 8d 05 7a 8d 00 00 	lea    0x8d7a(%rip),%rax        # a018 <__TMC_END__>
    129e:	48 39 f8             	cmp    %rdi,%rax
    12a1:	74 15                	je     12b8 <deregister_tm_clones+0x28>
    12a3:	48 8b 05 2e 8d 00 00 	mov    0x8d2e(%rip),%rax        # 9fd8 <_ITM_deregisterTMCloneTable>
    12aa:	48 85 c0             	test   %rax,%rax
    12ad:	74 09                	je     12b8 <deregister_tm_clones+0x28>
    12af:	ff e0                	jmpq   *%rax
    12b1:	0f 1f 80 00 00 00 00 	nopl   0x0(%rax)
    12b8:	c3                   	retq   
    12b9:	0f 1f 80 00 00 00 00 	nopl   0x0(%rax)

00000000000012c0 <register_tm_clones>:
    12c0:	48 8d 3d 51 8d 00 00 	lea    0x8d51(%rip),%rdi        # a018 <__TMC_END__>
    12c7:	48 8d 35 4a 8d 00 00 	lea    0x8d4a(%rip),%rsi        # a018 <__TMC_END__>
    12ce:	48 29 fe             	sub    %rdi,%rsi
    12d1:	48 89 f0             	mov    %rsi,%rax
    12d4:	48 c1 ee 3f          	shr    $0x3f,%rsi
    12d8:	48 c1 f8 03          	sar    $0x3,%rax
    12dc:	48 01 c6             	add    %rax,%rsi
    12df:	48 d1 fe             	sar    %rsi
    12e2:	74 14                	je     12f8 <register_tm_clones+0x38>
    12e4:	48 8b 05 05 8d 00 00 	mov    0x8d05(%rip),%rax        # 9ff0 <_ITM_registerTMCloneTable>
    12eb:	48 85 c0             	test   %rax,%rax
    12ee:	74 08                	je     12f8 <register_tm_clones+0x38>
    12f0:	ff e0                	jmpq   *%rax
    12f2:	66 0f 1f 44 00 00    	nopw   0x0(%rax,%rax,1)
    12f8:	c3                   	retq   
    12f9:	0f 1f 80 00 00 00 00 	nopl   0x0(%rax)

0000000000001300 <__do_global_dtors_aux>:
    1300:	f3 0f 1e fa          	endbr64 
    1304:	80 3d 45 8e 00 00 00 	cmpb   $0x0,0x8e45(%rip)        # a150 <completed.8060>
    130b:	75 2b                	jne    1338 <__do_global_dtors_aux+0x38>
    130d:	55                   	push   %rbp
    130e:	48 83 3d b2 8c 00 00 	cmpq   $0x0,0x8cb2(%rip)        # 9fc8 <__cxa_finalize@GLIBC_2.2.5>
    1315:	00 
    1316:	48 89 e5             	mov    %rsp,%rbp
    1319:	74 0c                	je     1327 <__do_global_dtors_aux+0x27>
    131b:	48 8b 3d e6 8c 00 00 	mov    0x8ce6(%rip),%rdi        # a008 <__dso_handle>
    1322:	e8 19 fe ff ff       	callq  1140 <__cxa_finalize@plt>
    1327:	e8 64 ff ff ff       	callq  1290 <deregister_tm_clones>
    132c:	c6 05 1d 8e 00 00 01 	movb   $0x1,0x8e1d(%rip)        # a150 <completed.8060>
    1333:	5d                   	pop    %rbp
    1334:	c3                   	retq   
    1335:	0f 1f 00             	nopl   (%rax)
    1338:	c3                   	retq   
    1339:	0f 1f 80 00 00 00 00 	nopl   0x0(%rax)

0000000000001340 <frame_dummy>:
    1340:	f3 0f 1e fa          	endbr64 
    1344:	e9 77 ff ff ff       	jmpq   12c0 <register_tm_clones>

0000000000001349 <main>:
    1349:	f3 0f 1e fa          	endbr64 
    134d:	55                   	push   %rbp
    134e:	48 89 e5             	mov    %rsp,%rbp
    1351:	41 55                	push   %r13
    1353:	41 54                	push   %r12
    1355:	53                   	push   %rbx
    1356:	48 81 ec 88 00 00 00 	sub    $0x88,%rsp
    135d:	64 48 8b 04 25 28 00 	mov    %fs:0x28,%rax
    1364:	00 00 
    1366:	48 89 45 d8          	mov    %rax,-0x28(%rbp)
    136a:	31 c0                	xor    %eax,%eax
    136c:	c7 45 cc 03 00 00 00 	movl   $0x3,-0x34(%rbp)
    1373:	c7 45 d0 02 00 00 00 	movl   $0x2,-0x30(%rbp)
    137a:	c7 45 d4 04 00 00 00 	movl   $0x4,-0x2c(%rbp)
    1381:	48 8d 45 cc          	lea    -0x34(%rbp),%rax
    1385:	49 89 c4             	mov    %rax,%r12
    1388:	41 bd 03 00 00 00    	mov    $0x3,%r13d
    138e:	48 8d 45 b0          	lea    -0x50(%rbp),%rax
    1392:	48 89 c7             	mov    %rax,%rdi
    1395:	e8 50 09 00 00       	callq  1cea <_ZNSaIiEC1Ev>
    139a:	48 8d 55 b0          	lea    -0x50(%rbp),%rdx
    139e:	4c 89 e6             	mov    %r12,%rsi
    13a1:	4c 89 ef             	mov    %r13,%rdi
    13a4:	4c 89 e1             	mov    %r12,%rcx
    13a7:	4c 89 eb             	mov    %r13,%rbx
    13aa:	48 89 df             	mov    %rbx,%rdi
    13ad:	48 8d 45 90          	lea    -0x70(%rbp),%rax
    13b1:	48 89 d1             	mov    %rdx,%rcx
    13b4:	48 89 fa             	mov    %rdi,%rdx
    13b7:	48 89 c7             	mov    %rax,%rdi
    13ba:	e8 4b 09 00 00       	callq  1d0a <_ZNSt6vectorIiSaIiEEC1ESt16initializer_listIiERKS0_>
    13bf:	48 8d 45 b0          	lea    -0x50(%rbp),%rax
    13c3:	48 89 c7             	mov    %rax,%rdi
    13c6:	e8 17 07 00 00       	callq  1ae2 <_ZNSaIiED1Ev>
    13cb:	c7 85 6c ff ff ff 06 	movl   $0x6,-0x94(%rbp)
    13d2:	00 00 00 
    13d5:	48 8d 45 b0          	lea    -0x50(%rbp),%rax
    13d9:	8b 95 6c ff ff ff    	mov    -0x94(%rbp),%edx
    13df:	48 8d 4d 90          	lea    -0x70(%rbp),%rcx
    13e3:	48 89 ce             	mov    %rcx,%rsi
    13e6:	48 89 c7             	mov    %rax,%rdi
    13e9:	e8 4d 04 00 00       	callq  183b <_ZN8Solution6twoSumERSt6vectorIiSaIiEEi>
    13ee:	48 8d 45 b0          	lea    -0x50(%rbp),%rax
    13f2:	48 89 45 80          	mov    %rax,-0x80(%rbp)
    13f6:	48 8b 45 80          	mov    -0x80(%rbp),%rax
    13fa:	48 89 c7             	mov    %rax,%rdi
    13fd:	e8 bc 09 00 00       	callq  1dbe <_ZNSt6vectorIiSaIiEE5beginEv>
    1402:	48 89 85 70 ff ff ff 	mov    %rax,-0x90(%rbp)
    1409:	48 8b 45 80          	mov    -0x80(%rbp),%rax
    140d:	48 89 c7             	mov    %rax,%rdi
    1410:	e8 f5 09 00 00       	callq  1e0a <_ZNSt6vectorIiSaIiEE3endEv>
    1415:	48 89 85 78 ff ff ff 	mov    %rax,-0x88(%rbp)
    141c:	48 8d 95 78 ff ff ff 	lea    -0x88(%rbp),%rdx
    1423:	48 8d 85 70 ff ff ff 	lea    -0x90(%rbp),%rax
    142a:	48 89 d6             	mov    %rdx,%rsi
    142d:	48 89 c7             	mov    %rax,%rdi
    1430:	e8 25 0a 00 00       	callq  1e5a <_ZN9__gnu_cxxneIPiSt6vectorIiSaIiEEEEbRKNS_17__normal_iteratorIT_T0_EESA_>
    1435:	84 c0                	test   %al,%al
    1437:	74 47                	je     1480 <main+0x137>
    1439:	48 8d 85 70 ff ff ff 	lea    -0x90(%rbp),%rax
    1440:	48 89 c7             	mov    %rax,%rdi
    1443:	e8 76 0a 00 00       	callq  1ebe <_ZNK9__gnu_cxx17__normal_iteratorIPiSt6vectorIiSaIiEEEdeEv>
    1448:	48 89 45 88          	mov    %rax,-0x78(%rbp)
    144c:	48 8b 45 88          	mov    -0x78(%rbp),%rax
    1450:	8b 00                	mov    (%rax),%eax
    1452:	89 c6                	mov    %eax,%esi
    1454:	48 8d 3d e5 8b 00 00 	lea    0x8be5(%rip),%rdi        # a040 <_ZSt4cout@@GLIBCXX_3.4>
    145b:	e8 e0 fd ff ff       	callq  1240 <_ZNSolsEi@plt>
    1460:	48 8d 35 a4 4b 00 00 	lea    0x4ba4(%rip),%rsi        # 600b <_ZStL6ignore+0x1>
    1467:	48 89 c7             	mov    %rax,%rdi
    146a:	e8 41 fd ff ff       	callq  11b0 <_ZStlsISt11char_traitsIcEERSt13basic_ostreamIcT_ES5_PKc@plt>
    146f:	48 8d 85 70 ff ff ff 	lea    -0x90(%rbp),%rax
    1476:	48 89 c7             	mov    %rax,%rdi
    1479:	e8 1c 0a 00 00       	callq  1e9a <_ZN9__gnu_cxx17__normal_iteratorIPiSt6vectorIiSaIiEEEppEv>
    147e:	eb 9c                	jmp    141c <main+0xd3>
    1480:	48 8b 05 49 8b 00 00 	mov    0x8b49(%rip),%rax        # 9fd0 <_ZSt4endlIcSt11char_traitsIcEERSt13basic_ostreamIT_T0_ES6_@GLIBCXX_3.4>
    1487:	48 89 c6             	mov    %rax,%rsi
    148a:	48 8d 3d af 8b 00 00 	lea    0x8baf(%rip),%rdi        # a040 <_ZSt4cout@@GLIBCXX_3.4>
    1491:	e8 3a fd ff ff       	callq  11d0 <_ZNSolsEPFRSoS_E@plt>
    1496:	bb 00 00 00 00       	mov    $0x0,%ebx
    149b:	48 8d 45 b0          	lea    -0x50(%rbp),%rax
    149f:	48 89 c7             	mov    %rax,%rdi
    14a2:	e8 ad 06 00 00       	callq  1b54 <_ZNSt6vectorIiSaIiEED1Ev>
    14a7:	48 8d 45 90          	lea    -0x70(%rbp),%rax
    14ab:	48 89 c7             	mov    %rax,%rdi
    14ae:	e8 a1 06 00 00       	callq  1b54 <_ZNSt6vectorIiSaIiEED1Ev>
    14b3:	89 d8                	mov    %ebx,%eax
    14b5:	48 8b 4d d8          	mov    -0x28(%rbp),%rcx
    14b9:	64 48 33 0c 25 28 00 	xor    %fs:0x28,%rcx
    14c0:	00 00 
    14c2:	74 58                	je     151c <main+0x1d3>
    14c4:	eb 51                	jmp    1517 <main+0x1ce>
    14c6:	f3 0f 1e fa          	endbr64 
    14ca:	48 89 c3             	mov    %rax,%rbx
    14cd:	48 8d 45 b0          	lea    -0x50(%rbp),%rax
    14d1:	48 89 c7             	mov    %rax,%rdi
    14d4:	e8 09 06 00 00       	callq  1ae2 <_ZNSaIiED1Ev>
    14d9:	48 89 d8             	mov    %rbx,%rax
    14dc:	48 89 c7             	mov    %rax,%rdi
    14df:	e8 6c fd ff ff       	callq  1250 <_Unwind_Resume@plt>
    14e4:	f3 0f 1e fa          	endbr64 
    14e8:	48 89 c3             	mov    %rax,%rbx
    14eb:	48 8d 45 b0          	lea    -0x50(%rbp),%rax
    14ef:	48 89 c7             	mov    %rax,%rdi
    14f2:	e8 5d 06 00 00       	callq  1b54 <_ZNSt6vectorIiSaIiEED1Ev>
    14f7:	eb 07                	jmp    1500 <main+0x1b7>
    14f9:	f3 0f 1e fa          	endbr64 
    14fd:	48 89 c3             	mov    %rax,%rbx
    1500:	48 8d 45 90          	lea    -0x70(%rbp),%rax
    1504:	48 89 c7             	mov    %rax,%rdi
    1507:	e8 48 06 00 00       	callq  1b54 <_ZNSt6vectorIiSaIiEED1Ev>
    150c:	48 89 d8             	mov    %rbx,%rax
    150f:	48 89 c7             	mov    %rax,%rdi
    1512:	e8 39 fd ff ff       	callq  1250 <_Unwind_Resume@plt>
    1517:	e8 c4 fc ff ff       	callq  11e0 <__stack_chk_fail@plt>
    151c:	48 81 c4 88 00 00 00 	add    $0x88,%rsp
    1523:	5b                   	pop    %rbx
    1524:	41 5c                	pop    %r12
    1526:	41 5d                	pop    %r13
    1528:	5d                   	pop    %rbp
    1529:	c3                   	retq   

000000000000152a <_Z41__static_initialization_and_destruction_0ii>:
    152a:	f3 0f 1e fa          	endbr64 
    152e:	55                   	push   %rbp
    152f:	48 89 e5             	mov    %rsp,%rbp
    1532:	48 83 ec 10          	sub    $0x10,%rsp
    1536:	89 7d fc             	mov    %edi,-0x4(%rbp)
    1539:	89 75 f8             	mov    %esi,-0x8(%rbp)
    153c:	83 7d fc 01          	cmpl   $0x1,-0x4(%rbp)
    1540:	75 32                	jne    1574 <_Z41__static_initialization_and_destruction_0ii+0x4a>
    1542:	81 7d f8 ff ff 00 00 	cmpl   $0xffff,-0x8(%rbp)
    1549:	75 29                	jne    1574 <_Z41__static_initialization_and_destruction_0ii+0x4a>
    154b:	48 8d 3d ff 8b 00 00 	lea    0x8bff(%rip),%rdi        # a151 <_ZStL8__ioinit>
    1552:	e8 b9 fc ff ff       	callq  1210 <_ZNSt8ios_base4InitC1Ev@plt>
    1557:	48 8d 15 aa 8a 00 00 	lea    0x8aaa(%rip),%rdx        # a008 <__dso_handle>
    155e:	48 8d 35 ec 8b 00 00 	lea    0x8bec(%rip),%rsi        # a151 <_ZStL8__ioinit>
    1565:	48 8b 05 8c 8a 00 00 	mov    0x8a8c(%rip),%rax        # 9ff8 <_ZNSt8ios_base4InitD1Ev@GLIBCXX_3.4>
    156c:	48 89 c7             	mov    %rax,%rdi
    156f:	e8 1c fc ff ff       	callq  1190 <__cxa_atexit@plt>
    1574:	90                   	nop
    1575:	c9                   	leaveq 
    1576:	c3                   	retq   

0000000000001577 <_GLOBAL__sub_I_main>:
    1577:	f3 0f 1e fa          	endbr64 
    157b:	55                   	push   %rbp
    157c:	48 89 e5             	mov    %rsp,%rbp
    157f:	be ff ff 00 00       	mov    $0xffff,%esi
    1584:	bf 01 00 00 00       	mov    $0x1,%edi
    1589:	e8 9c ff ff ff       	callq  152a <_Z41__static_initialization_and_destruction_0ii>
    158e:	5d                   	pop    %rbp
    158f:	c3                   	retq   

0000000000001590 <_ZnwmPv>:
    1590:	f3 0f 1e fa          	endbr64 
    1594:	55                   	push   %rbp
    1595:	48 89 e5             	mov    %rsp,%rbp
    1598:	48 89 7d f8          	mov    %rdi,-0x8(%rbp)
    159c:	48 89 75 f0          	mov    %rsi,-0x10(%rbp)
    15a0:	48 8b 45 f0          	mov    -0x10(%rbp),%rax
    15a4:	5d                   	pop    %rbp
    15a5:	c3                   	retq   

00000000000015a6 <_ZdlPvS_>:
    15a6:	f3 0f 1e fa          	endbr64 
    15aa:	55                   	push   %rbp
    15ab:	48 89 e5             	mov    %rsp,%rbp
    15ae:	48 89 7d f8          	mov    %rdi,-0x8(%rbp)
    15b2:	48 89 75 f0          	mov    %rsi,-0x10(%rbp)
    15b6:	90                   	nop
    15b7:	5d                   	pop    %rbp
    15b8:	c3                   	retq   
    15b9:	90                   	nop

00000000000015ba <_ZNKSt4hashIiEclEi>:
    15ba:	f3 0f 1e fa          	endbr64 
    15be:	55                   	push   %rbp
    15bf:	48 89 e5             	mov    %rsp,%rbp
    15c2:	48 89 7d f8          	mov    %rdi,-0x8(%rbp)
    15c6:	89 75 f4             	mov    %esi,-0xc(%rbp)
    15c9:	8b 45 f4             	mov    -0xc(%rbp),%eax
    15cc:	48 98                	cltq   
    15ce:	5d                   	pop    %rbp
    15cf:	c3                   	retq   

00000000000015d0 <_ZNSt8__detail15_Hash_node_baseC1Ev>:
    15d0:	f3 0f 1e fa          	endbr64 
    15d4:	55                   	push   %rbp
    15d5:	48 89 e5             	mov    %rsp,%rbp
    15d8:	48 89 7d f8          	mov    %rdi,-0x8(%rbp)
    15dc:	48 8b 45 f8          	mov    -0x8(%rbp),%rax
    15e0:	48 c7 00 00 00 00 00 	movq   $0x0,(%rax)
    15e7:	90                   	nop
    15e8:	5d                   	pop    %rbp
    15e9:	c3                   	retq   

00000000000015ea <_ZNKSt8__detail18_Mod_range_hashingclEmm>:
    15ea:	f3 0f 1e fa          	endbr64 
    15ee:	55                   	push   %rbp
    15ef:	48 89 e5             	mov    %rsp,%rbp
    15f2:	48 89 7d f8          	mov    %rdi,-0x8(%rbp)
    15f6:	48 89 75 f0          	mov    %rsi,-0x10(%rbp)
    15fa:	48 89 55 e8          	mov    %rdx,-0x18(%rbp)
    15fe:	48 8b 45 f0          	mov    -0x10(%rbp),%rax
    1602:	ba 00 00 00 00       	mov    $0x0,%edx
    1607:	48 f7 75 e8          	divq   -0x18(%rbp)
    160b:	48 89 d0             	mov    %rdx,%rax
    160e:	5d                   	pop    %rbp
    160f:	c3                   	retq   

0000000000001610 <_ZNSt8__detail20_Prime_rehash_policyC1Ef>:
    1610:	f3 0f 1e fa          	endbr64 
    1614:	55                   	push   %rbp
    1615:	48 89 e5             	mov    %rsp,%rbp
    1618:	48 89 7d f8          	mov    %rdi,-0x8(%rbp)
    161c:	f3 0f 11 45 f4       	movss  %xmm0,-0xc(%rbp)
    1621:	48 8b 45 f8          	mov    -0x8(%rbp),%rax
    1625:	f3 0f 10 45 f4       	movss  -0xc(%rbp),%xmm0
    162a:	f3 0f 11 00          	movss  %xmm0,(%rax)
    162e:	48 8b 45 f8          	mov    -0x8(%rbp),%rax
    1632:	48 c7 40 08 00 00 00 	movq   $0x0,0x8(%rax)
    1639:	00 
    163a:	90                   	nop
    163b:	5d                   	pop    %rbp
    163c:	c3                   	retq   
    163d:	90                   	nop

000000000000163e <_ZNKSt8__detail20_Prime_rehash_policy8_M_stateEv>:
    163e:	f3 0f 1e fa          	endbr64 
    1642:	55                   	push   %rbp
    1643:	48 89 e5             	mov    %rsp,%rbp
    1646:	48 89 7d f8          	mov    %rdi,-0x8(%rbp)
    164a:	48 8b 45 f8          	mov    -0x8(%rbp),%rax
    164e:	48 8b 40 08          	mov    0x8(%rax),%rax
    1652:	5d                   	pop    %rbp
    1653:	c3                   	retq   

0000000000001654 <_ZNSt8__detail20_Prime_rehash_policy8_M_resetEm>:
    1654:	f3 0f 1e fa          	endbr64 
    1658:	55                   	push   %rbp
    1659:	48 89 e5             	mov    %rsp,%rbp
    165c:	48 89 7d f8          	mov    %rdi,-0x8(%rbp)
    1660:	48 89 75 f0          	mov    %rsi,-0x10(%rbp)
    1664:	48 8b 45 f8          	mov    -0x8(%rbp),%rax
    1668:	48 8b 55 f0          	mov    -0x10(%rbp),%rdx
    166c:	48 89 50 08          	mov    %rdx,0x8(%rax)
    1670:	90                   	nop
    1671:	5d                   	pop    %rbp
    1672:	c3                   	retq   

0000000000001673 <_ZSt3minImERKT_S2_S2_>:
    1673:	f3 0f 1e fa          	endbr64 
    1677:	55                   	push   %rbp
    1678:	48 89 e5             	mov    %rsp,%rbp
    167b:	48 89 7d f8          	mov    %rdi,-0x8(%rbp)
    167f:	48 89 75 f0          	mov    %rsi,-0x10(%rbp)
    1683:	48 8b 45 f0          	mov    -0x10(%rbp),%rax
    1687:	48 8b 10             	mov    (%rax),%rdx
    168a:	48 8b 45 f8          	mov    -0x8(%rbp),%rax
    168e:	48 8b 00             	mov    (%rax),%rax
    1691:	48 39 c2             	cmp    %rax,%rdx
    1694:	73 06                	jae    169c <_ZSt3minImERKT_S2_S2_+0x29>
    1696:	48 8b 45 f0          	mov    -0x10(%rbp),%rax
    169a:	eb 04                	jmp    16a0 <_ZSt3minImERKT_S2_S2_+0x2d>
    169c:	48 8b 45 f8          	mov    -0x8(%rbp),%rax
    16a0:	5d                   	pop    %rbp
    16a1:	c3                   	retq   

00000000000016a2 <_ZNSt8__detail21_Hashtable_ebo_helperILi0ESaINS_10_Hash_nodeISt4pairIKiiELb0EEEELb1EEC1Ev>:
    16a2:	f3 0f 1e fa          	endbr64 
    16a6:	55                   	push   %rbp
    16a7:	48 89 e5             	mov    %rsp,%rbp
    16aa:	48 83 ec 10          	sub    $0x10,%rsp
    16ae:	48 89 7d f8          	mov    %rdi,-0x8(%rbp)
    16b2:	48 8b 45 f8          	mov    -0x8(%rbp),%rax
    16b6:	48 89 c7             	mov    %rax,%rdi
    16b9:	e8 80 03 00 00       	callq  1a3e <_ZNSaINSt8__detail10_Hash_nodeISt4pairIKiiELb0EEEEC1Ev>
    16be:	90                   	nop
    16bf:	c9                   	leaveq 
    16c0:	c3                   	retq   
    16c1:	90                   	nop

00000000000016c2 <_ZNSt8__detail21_Hashtable_ebo_helperILi0ESaINS_10_Hash_nodeISt4pairIKiiELb0EEEELb1EED1Ev>:
    16c2:	f3 0f 1e fa          	endbr64 
    16c6:	55                   	push   %rbp
    16c7:	48 89 e5             	mov    %rsp,%rbp
    16ca:	48 83 ec 10          	sub    $0x10,%rsp
    16ce:	48 89 7d f8          	mov    %rdi,-0x8(%rbp)
    16d2:	48 8b 45 f8          	mov    -0x8(%rbp),%rax
    16d6:	48 89 c7             	mov    %rax,%rdi
    16d9:	e8 80 03 00 00       	callq  1a5e <_ZNSaINSt8__detail10_Hash_nodeISt4pairIKiiELb0EEEED1Ev>
    16de:	90                   	nop
    16df:	c9                   	leaveq 
    16e0:	c3                   	retq   
    16e1:	90                   	nop

00000000000016e2 <_ZNSt8__detail16_Hashtable_allocISaINS_10_Hash_nodeISt4pairIKiiELb0EEEEEC1Ev>:
    16e2:	f3 0f 1e fa          	endbr64 
    16e6:	55                   	push   %rbp
    16e7:	48 89 e5             	mov    %rsp,%rbp
    16ea:	48 83 ec 10          	sub    $0x10,%rsp
    16ee:	48 89 7d f8          	mov    %rdi,-0x8(%rbp)
    16f2:	48 8b 45 f8          	mov    -0x8(%rbp),%rax
    16f6:	48 89 c7             	mov    %rax,%rdi
    16f9:	e8 a4 ff ff ff       	callq  16a2 <_ZNSt8__detail21_Hashtable_ebo_helperILi0ESaINS_10_Hash_nodeISt4pairIKiiELb0EEEELb1EEC1Ev>
    16fe:	90                   	nop
    16ff:	c9                   	leaveq 
    1700:	c3                   	retq   
    1701:	90                   	nop

0000000000001702 <_ZNSt8__detail16_Hashtable_allocISaINS_10_Hash_nodeISt4pairIKiiELb0EEEEED1Ev>:
    1702:	f3 0f 1e fa          	endbr64 
    1706:	55                   	push   %rbp
    1707:	48 89 e5             	mov    %rsp,%rbp
    170a:	48 83 ec 10          	sub    $0x10,%rsp
    170e:	48 89 7d f8          	mov    %rdi,-0x8(%rbp)
    1712:	48 8b 45 f8          	mov    -0x8(%rbp),%rax
    1716:	48 89 c7             	mov    %rax,%rdi
    1719:	e8 a4 ff ff ff       	callq  16c2 <_ZNSt8__detail21_Hashtable_ebo_helperILi0ESaINS_10_Hash_nodeISt4pairIKiiELb0EEEELb1EED1Ev>
    171e:	90                   	nop
    171f:	c9                   	leaveq 
    1720:	c3                   	retq   
    1721:	90                   	nop

0000000000001722 <_ZNSt10_HashtableIiSt4pairIKiiESaIS2_ENSt8__detail10_Select1stESt8equal_toIiESt4hashIiENS4_18_Mod_range_hashingENS4_20_Default_ranged_hashENS4_20_Prime_rehash_policyENS4_17_Hashtable_traitsILb0ELb0ELb1EEEEC1Ev>:
    1722:	f3 0f 1e fa          	endbr64 
    1726:	55                   	push   %rbp
    1727:	48 89 e5             	mov    %rsp,%rbp
    172a:	48 83 ec 10          	sub    $0x10,%rsp
    172e:	48 89 7d f8          	mov    %rdi,-0x8(%rbp)
    1732:	48 8b 45 f8          	mov    -0x8(%rbp),%rax
    1736:	48 89 c7             	mov    %rax,%rdi
    1739:	e8 a4 ff ff ff       	callq  16e2 <_ZNSt8__detail16_Hashtable_allocISaINS_10_Hash_nodeISt4pairIKiiELb0EEEEEC1Ev>
    173e:	48 8b 45 f8          	mov    -0x8(%rbp),%rax
    1742:	48 8d 50 30          	lea    0x30(%rax),%rdx
    1746:	48 8b 45 f8          	mov    -0x8(%rbp),%rax
    174a:	48 89 10             	mov    %rdx,(%rax)
    174d:	48 8b 45 f8          	mov    -0x8(%rbp),%rax
    1751:	48 c7 40 08 01 00 00 	movq   $0x1,0x8(%rax)
    1758:	00 
    1759:	48 8b 45 f8          	mov    -0x8(%rbp),%rax
    175d:	48 83 c0 10          	add    $0x10,%rax
    1761:	48 89 c7             	mov    %rax,%rdi
    1764:	e8 67 fe ff ff       	callq  15d0 <_ZNSt8__detail15_Hash_node_baseC1Ev>
    1769:	48 8b 45 f8          	mov    -0x8(%rbp),%rax
    176d:	48 c7 40 18 00 00 00 	movq   $0x0,0x18(%rax)
    1774:	00 
    1775:	48 8b 45 f8          	mov    -0x8(%rbp),%rax
    1779:	48 83 c0 20          	add    $0x20,%rax
    177d:	f3 0f 10 05 d7 48 00 	movss  0x48d7(%rip),%xmm0        # 605c <_ZStL6ignore+0x52>
    1784:	00 
    1785:	48 89 c7             	mov    %rax,%rdi
    1788:	e8 83 fe ff ff       	callq  1610 <_ZNSt8__detail20_Prime_rehash_policyC1Ef>
    178d:	48 8b 45 f8          	mov    -0x8(%rbp),%rax
    1791:	48 c7 40 30 00 00 00 	movq   $0x0,0x30(%rax)
    1798:	00 
    1799:	90                   	nop
    179a:	c9                   	leaveq 
    179b:	c3                   	retq   

000000000000179c <_ZNSt13unordered_mapIiiSt4hashIiESt8equal_toIiESaISt4pairIKiiEEEC1Ev>:
    179c:	f3 0f 1e fa          	endbr64 
    17a0:	55                   	push   %rbp
    17a1:	48 89 e5             	mov    %rsp,%rbp
    17a4:	48 83 ec 10          	sub    $0x10,%rsp
    17a8:	48 89 7d f8          	mov    %rdi,-0x8(%rbp)
    17ac:	48 8b 45 f8          	mov    -0x8(%rbp),%rax
    17b0:	48 89 c7             	mov    %rax,%rdi
    17b3:	e8 6a ff ff ff       	callq  1722 <_ZNSt10_HashtableIiSt4pairIKiiESaIS2_ENSt8__detail10_Select1stESt8equal_toIiESt4hashIiENS4_18_Mod_range_hashingENS4_20_Default_ranged_hashENS4_20_Prime_rehash_policyENS4_17_Hashtable_traitsILb0ELb0ELb1EEEEC1Ev>
    17b8:	90                   	nop
    17b9:	c9                   	leaveq 
    17ba:	c3                   	retq   
    17bb:	90                   	nop

00000000000017bc <_ZNSt13unordered_mapIiiSt4hashIiESt8equal_toIiESaISt4pairIKiiEEED1Ev>:
    17bc:	f3 0f 1e fa          	endbr64 
    17c0:	55                   	push   %rbp
    17c1:	48 89 e5             	mov    %rsp,%rbp
    17c4:	48 83 ec 10          	sub    $0x10,%rsp
    17c8:	48 89 7d f8          	mov    %rdi,-0x8(%rbp)
    17cc:	48 8b 45 f8          	mov    -0x8(%rbp),%rax
    17d0:	48 89 c7             	mov    %rax,%rdi
    17d3:	e8 a6 02 00 00       	callq  1a7e <_ZNSt10_HashtableIiSt4pairIKiiESaIS2_ENSt8__detail10_Select1stESt8equal_toIiESt4hashIiENS4_18_Mod_range_hashingENS4_20_Default_ranged_hashENS4_20_Prime_rehash_policyENS4_17_Hashtable_traitsILb0ELb0ELb1EEEED1Ev>
    17d8:	90                   	nop
    17d9:	c9                   	leaveq 
    17da:	c3                   	retq   
    17db:	90                   	nop

00000000000017dc <_ZNSt12_Vector_baseIiSaIiEE12_Vector_implD1Ev>:
    17dc:	f3 0f 1e fa          	endbr64 
    17e0:	55                   	push   %rbp
    17e1:	48 89 e5             	mov    %rsp,%rbp
    17e4:	48 83 ec 10          	sub    $0x10,%rsp
    17e8:	48 89 7d f8          	mov    %rdi,-0x8(%rbp)
    17ec:	48 8b 45 f8          	mov    -0x8(%rbp),%rax
    17f0:	48 89 c7             	mov    %rax,%rdi
    17f3:	e8 ea 02 00 00       	callq  1ae2 <_ZNSaIiED1Ev>
    17f8:	90                   	nop
    17f9:	c9                   	leaveq 
    17fa:	c3                   	retq   
    17fb:	90                   	nop

00000000000017fc <_ZNSt12_Vector_baseIiSaIiEEC1Ev>:
    17fc:	f3 0f 1e fa          	endbr64 
    1800:	55                   	push   %rbp
    1801:	48 89 e5             	mov    %rsp,%rbp
    1804:	48 83 ec 10          	sub    $0x10,%rsp
    1808:	48 89 7d f8          	mov    %rdi,-0x8(%rbp)
    180c:	48 8b 45 f8          	mov    -0x8(%rbp),%rax
    1810:	48 89 c7             	mov    %rax,%rdi
    1813:	e8 9e 02 00 00       	callq  1ab6 <_ZNSt12_Vector_baseIiSaIiEE12_Vector_implC1Ev>
    1818:	90                   	nop
    1819:	c9                   	leaveq 
    181a:	c3                   	retq   
    181b:	90                   	nop

000000000000181c <_ZNSt6vectorIiSaIiEEC1Ev>:
    181c:	f3 0f 1e fa          	endbr64 
    1820:	55                   	push   %rbp
    1821:	48 89 e5             	mov    %rsp,%rbp
    1824:	48 83 ec 10          	sub    $0x10,%rsp
    1828:	48 89 7d f8          	mov    %rdi,-0x8(%rbp)
    182c:	48 8b 45 f8          	mov    -0x8(%rbp),%rax
    1830:	48 89 c7             	mov    %rax,%rdi
    1833:	e8 c4 ff ff ff       	callq  17fc <_ZNSt12_Vector_baseIiSaIiEEC1Ev>
    1838:	90                   	nop
    1839:	c9                   	leaveq 
    183a:	c3                   	retq   

000000000000183b <_ZN8Solution6twoSumERSt6vectorIiSaIiEEi>:
    183b:	f3 0f 1e fa          	endbr64 
    183f:	55                   	push   %rbp
    1840:	48 89 e5             	mov    %rsp,%rbp
    1843:	53                   	push   %rbx
    1844:	48 81 ec 88 00 00 00 	sub    $0x88,%rsp
    184b:	48 89 7d 88          	mov    %rdi,-0x78(%rbp)
    184f:	48 89 75 80          	mov    %rsi,-0x80(%rbp)
    1853:	89 95 7c ff ff ff    	mov    %edx,-0x84(%rbp)
    1859:	64 48 8b 04 25 28 00 	mov    %fs:0x28,%rax
    1860:	00 00 
    1862:	48 89 45 e8          	mov    %rax,-0x18(%rbp)
    1866:	31 c0                	xor    %eax,%eax
    1868:	48 8d 45 b0          	lea    -0x50(%rbp),%rax
    186c:	48 89 c7             	mov    %rax,%rdi
    186f:	e8 28 ff ff ff       	callq  179c <_ZNSt13unordered_mapIiiSt4hashIiESt8equal_toIiESaISt4pairIKiiEEEC1Ev>
    1874:	48 8b 45 88          	mov    -0x78(%rbp),%rax
    1878:	48 89 c7             	mov    %rax,%rdi
    187b:	e8 9c ff ff ff       	callq  181c <_ZNSt6vectorIiSaIiEEC1Ev>
    1880:	c7 45 9c 00 00 00 00 	movl   $0x0,-0x64(%rbp)
    1887:	8b 45 9c             	mov    -0x64(%rbp),%eax
    188a:	48 63 d8             	movslq %eax,%rbx
    188d:	48 8b 45 80          	mov    -0x80(%rbp),%rax
    1891:	48 89 c7             	mov    %rax,%rdi
    1894:	e8 03 03 00 00       	callq  1b9c <_ZNKSt6vectorIiSaIiEE4sizeEv>
    1899:	48 39 c3             	cmp    %rax,%rbx
    189c:	0f 92 c0             	setb   %al
    189f:	84 c0                	test   %al,%al
    18a1:	0f 84 f9 00 00 00    	je     19a0 <_ZN8Solution6twoSumERSt6vectorIiSaIiEEi+0x165>
    18a7:	48 8d 45 b0          	lea    -0x50(%rbp),%rax
    18ab:	48 89 c7             	mov    %rax,%rdi
    18ae:	e8 5f 03 00 00       	callq  1c12 <_ZNSt13unordered_mapIiiSt4hashIiESt8equal_toIiESaISt4pairIKiiEEE3endEv>
    18b3:	48 89 45 a8          	mov    %rax,-0x58(%rbp)
    18b7:	8b 45 9c             	mov    -0x64(%rbp),%eax
    18ba:	48 63 d0             	movslq %eax,%rdx
    18bd:	48 8b 45 80          	mov    -0x80(%rbp),%rax
    18c1:	48 89 d6             	mov    %rdx,%rsi
    18c4:	48 89 c7             	mov    %rax,%rdi
    18c7:	e8 f8 02 00 00       	callq  1bc4 <_ZNSt6vectorIiSaIiEEixEm>
    18cc:	48 89 c2             	mov    %rax,%rdx
    18cf:	48 8d 45 b0          	lea    -0x50(%rbp),%rax
    18d3:	48 89 d6             	mov    %rdx,%rsi
    18d6:	48 89 c7             	mov    %rax,%rdi
    18d9:	e8 0a 03 00 00       	callq  1be8 <_ZNSt13unordered_mapIiiSt4hashIiESt8equal_toIiESaISt4pairIKiiEEE4findERS5_>
    18de:	48 89 45 a0          	mov    %rax,-0x60(%rbp)
    18e2:	48 8d 55 a8          	lea    -0x58(%rbp),%rdx
    18e6:	48 8d 45 a0          	lea    -0x60(%rbp),%rax
    18ea:	48 89 d6             	mov    %rdx,%rsi
    18ed:	48 89 c7             	mov    %rax,%rdi
    18f0:	e8 3b 03 00 00       	callq  1c30 <_ZNSt8__detaileqISt4pairIKiiELb0EEEbRKNS_19_Node_iterator_baseIT_XT0_EEES8_>
    18f5:	84 c0                	test   %al,%al
    18f7:	74 3e                	je     1937 <_ZN8Solution6twoSumERSt6vectorIiSaIiEEi+0xfc>
    18f9:	8b 45 9c             	mov    -0x64(%rbp),%eax
    18fc:	48 63 d0             	movslq %eax,%rdx
    18ff:	48 8b 45 80          	mov    -0x80(%rbp),%rax
    1903:	48 89 d6             	mov    %rdx,%rsi
    1906:	48 89 c7             	mov    %rax,%rdi
    1909:	e8 b6 02 00 00       	callq  1bc4 <_ZNSt6vectorIiSaIiEEixEm>
    190e:	8b 00                	mov    (%rax),%eax
    1910:	8b 95 7c ff ff ff    	mov    -0x84(%rbp),%edx
    1916:	29 c2                	sub    %eax,%edx
    1918:	89 d0                	mov    %edx,%eax
    191a:	89 45 a8             	mov    %eax,-0x58(%rbp)
    191d:	48 8d 55 a8          	lea    -0x58(%rbp),%rdx
    1921:	48 8d 45 b0          	lea    -0x50(%rbp),%rax
    1925:	48 89 d6             	mov    %rdx,%rsi
    1928:	48 89 c7             	mov    %rax,%rdi
    192b:	e8 26 03 00 00       	callq  1c56 <_ZNSt13unordered_mapIiiSt4hashIiESt8equal_toIiESaISt4pairIKiiEEEixEOi>
    1930:	8b 55 9c             	mov    -0x64(%rbp),%edx
    1933:	89 10                	mov    %edx,(%rax)
    1935:	eb 60                	jmp    1997 <_ZN8Solution6twoSumERSt6vectorIiSaIiEEi+0x15c>
    1937:	8b 45 9c             	mov    -0x64(%rbp),%eax
    193a:	48 63 d0             	movslq %eax,%rdx
    193d:	48 8b 45 80          	mov    -0x80(%rbp),%rax
    1941:	48 89 d6             	mov    %rdx,%rsi
    1944:	48 89 c7             	mov    %rax,%rdi
    1947:	e8 78 02 00 00       	callq  1bc4 <_ZNSt6vectorIiSaIiEEixEm>
    194c:	48 89 c2             	mov    %rax,%rdx
    194f:	48 8d 45 b0          	lea    -0x50(%rbp),%rax
    1953:	48 89 d6             	mov    %rdx,%rsi
    1956:	48 89 c7             	mov    %rax,%rdi
    1959:	e8 2c 03 00 00       	callq  1c8a <_ZNSt13unordered_mapIiiSt4hashIiESt8equal_toIiESaISt4pairIKiiEEEixERS5_>
    195e:	8b 00                	mov    (%rax),%eax
    1960:	83 c0 01             	add    $0x1,%eax
    1963:	89 45 a8             	mov    %eax,-0x58(%rbp)
    1966:	48 8d 55 a8          	lea    -0x58(%rbp),%rdx
    196a:	48 8b 45 88          	mov    -0x78(%rbp),%rax
    196e:	48 89 d6             	mov    %rdx,%rsi
    1971:	48 89 c7             	mov    %rax,%rdi
    1974:	e8 3b 03 00 00       	callq  1cb4 <_ZNSt6vectorIiSaIiEE9push_backEOi>
    1979:	8b 45 9c             	mov    -0x64(%rbp),%eax
    197c:	83 c0 01             	add    $0x1,%eax
    197f:	89 45 a8             	mov    %eax,-0x58(%rbp)
    1982:	48 8d 55 a8          	lea    -0x58(%rbp),%rdx
    1986:	48 8b 45 88          	mov    -0x78(%rbp),%rax
    198a:	48 89 d6             	mov    %rdx,%rsi
    198d:	48 89 c7             	mov    %rax,%rdi
    1990:	e8 1f 03 00 00       	callq  1cb4 <_ZNSt6vectorIiSaIiEE9push_backEOi>
    1995:	eb 09                	jmp    19a0 <_ZN8Solution6twoSumERSt6vectorIiSaIiEEi+0x165>
    1997:	83 45 9c 01          	addl   $0x1,-0x64(%rbp)
    199b:	e9 e7 fe ff ff       	jmpq   1887 <_ZN8Solution6twoSumERSt6vectorIiSaIiEEi+0x4c>
    19a0:	90                   	nop
    19a1:	48 8d 45 b0          	lea    -0x50(%rbp),%rax
    19a5:	48 89 c7             	mov    %rax,%rdi
    19a8:	e8 0f fe ff ff       	callq  17bc <_ZNSt13unordered_mapIiiSt4hashIiESt8equal_toIiESaISt4pairIKiiEEED1Ev>
    19ad:	90                   	nop
    19ae:	48 8b 45 e8          	mov    -0x18(%rbp),%rax
    19b2:	64 48 33 04 25 28 00 	xor    %fs:0x28,%rax
    19b9:	00 00 
    19bb:	74 31                	je     19ee <_ZN8Solution6twoSumERSt6vectorIiSaIiEEi+0x1b3>
    19bd:	eb 2a                	jmp    19e9 <_ZN8Solution6twoSumERSt6vectorIiSaIiEEi+0x1ae>
    19bf:	f3 0f 1e fa          	endbr64 
    19c3:	48 89 c3             	mov    %rax,%rbx
    19c6:	48 8b 45 88          	mov    -0x78(%rbp),%rax
    19ca:	48 89 c7             	mov    %rax,%rdi
    19cd:	e8 82 01 00 00       	callq  1b54 <_ZNSt6vectorIiSaIiEED1Ev>
    19d2:	48 8d 45 b0          	lea    -0x50(%rbp),%rax
    19d6:	48 89 c7             	mov    %rax,%rdi
    19d9:	e8 de fd ff ff       	callq  17bc <_ZNSt13unordered_mapIiiSt4hashIiESt8equal_toIiESaISt4pairIKiiEEED1Ev>
    19de:	48 89 d8             	mov    %rbx,%rax
    19e1:	48 89 c7             	mov    %rax,%rdi
    19e4:	e8 67 f8 ff ff       	callq  1250 <_Unwind_Resume@plt>
    19e9:	e8 f2 f7 ff ff       	callq  11e0 <__stack_chk_fail@plt>
    19ee:	48 8b 45 88          	mov    -0x78(%rbp),%rax
    19f2:	48 81 c4 88 00 00 00 	add    $0x88,%rsp
    19f9:	5b                   	pop    %rbx
    19fa:	5d                   	pop    %rbp
    19fb:	c3                   	retq   

00000000000019fc <_ZSt3maxImERKT_S2_S2_>:
    19fc:	f3 0f 1e fa          	endbr64 
    1a00:	55                   	push   %rbp
    1a01:	48 89 e5             	mov    %rsp,%rbp
    1a04:	48 89 7d f8          	mov    %rdi,-0x8(%rbp)
    1a08:	48 89 75 f0          	mov    %rsi,-0x10(%rbp)
    1a0c:	48 8b 45 f8          	mov    -0x8(%rbp),%rax
    1a10:	48 8b 10             	mov    (%rax),%rdx
    1a13:	48 8b 45 f0          	mov    -0x10(%rbp),%rax
    1a17:	48 8b 00             	mov    (%rax),%rax
    1a1a:	48 39 c2             	cmp    %rax,%rdx
    1a1d:	73 06                	jae    1a25 <_ZSt3maxImERKT_S2_S2_+0x29>
    1a1f:	48 8b 45 f0          	mov    -0x10(%rbp),%rax
    1a23:	eb 04                	jmp    1a29 <_ZSt3maxImERKT_S2_S2_+0x2d>
    1a25:	48 8b 45 f8          	mov    -0x8(%rbp),%rax
    1a29:	5d                   	pop    %rbp
    1a2a:	c3                   	retq   

0000000000001a2b <_ZSt7forwardIiEOT_RNSt16remove_referenceIS0_E4typeE>:
    1a2b:	f3 0f 1e fa          	endbr64 
    1a2f:	55                   	push   %rbp
    1a30:	48 89 e5             	mov    %rsp,%rbp
    1a33:	48 89 7d f8          	mov    %rdi,-0x8(%rbp)
    1a37:	48 8b 45 f8          	mov    -0x8(%rbp),%rax
    1a3b:	5d                   	pop    %rbp
    1a3c:	c3                   	retq   
    1a3d:	90                   	nop

0000000000001a3e <_ZNSaINSt8__detail10_Hash_nodeISt4pairIKiiELb0EEEEC1Ev>:
    1a3e:	f3 0f 1e fa          	endbr64 
    1a42:	55                   	push   %rbp
    1a43:	48 89 e5             	mov    %rsp,%rbp
    1a46:	48 83 ec 10          	sub    $0x10,%rsp
    1a4a:	48 89 7d f8          	mov    %rdi,-0x8(%rbp)
    1a4e:	48 8b 45 f8          	mov    -0x8(%rbp),%rax
    1a52:	48 89 c7             	mov    %rax,%rdi
    1a55:	e8 7a 04 00 00       	callq  1ed4 <_ZN9__gnu_cxx13new_allocatorINSt8__detail10_Hash_nodeISt4pairIKiiELb0EEEEC1Ev>
    1a5a:	90                   	nop
    1a5b:	c9                   	leaveq 
    1a5c:	c3                   	retq   
    1a5d:	90                   	nop

0000000000001a5e <_ZNSaINSt8__detail10_Hash_nodeISt4pairIKiiELb0EEEED1Ev>:
    1a5e:	f3 0f 1e fa          	endbr64 
    1a62:	55                   	push   %rbp
    1a63:	48 89 e5             	mov    %rsp,%rbp
    1a66:	48 83 ec 10          	sub    $0x10,%rsp
    1a6a:	48 89 7d f8          	mov    %rdi,-0x8(%rbp)
    1a6e:	48 8b 45 f8          	mov    -0x8(%rbp),%rax
    1a72:	48 89 c7             	mov    %rax,%rdi
    1a75:	e8 6a 04 00 00       	callq  1ee4 <_ZN9__gnu_cxx13new_allocatorINSt8__detail10_Hash_nodeISt4pairIKiiELb0EEEED1Ev>
    1a7a:	90                   	nop
    1a7b:	c9                   	leaveq 
    1a7c:	c3                   	retq   
    1a7d:	90                   	nop

0000000000001a7e <_ZNSt10_HashtableIiSt4pairIKiiESaIS2_ENSt8__detail10_Select1stESt8equal_toIiESt4hashIiENS4_18_Mod_range_hashingENS4_20_Default_ranged_hashENS4_20_Prime_rehash_policyENS4_17_Hashtable_traitsILb0ELb0ELb1EEEED1Ev>:
    1a7e:	f3 0f 1e fa          	endbr64 
    1a82:	55                   	push   %rbp
    1a83:	48 89 e5             	mov    %rsp,%rbp
    1a86:	48 83 ec 10          	sub    $0x10,%rsp
    1a8a:	48 89 7d f8          	mov    %rdi,-0x8(%rbp)
    1a8e:	48 8b 45 f8          	mov    -0x8(%rbp),%rax
    1a92:	48 89 c7             	mov    %rax,%rdi
    1a95:	e8 5a 04 00 00       	callq  1ef4 <_ZNSt10_HashtableIiSt4pairIKiiESaIS2_ENSt8__detail10_Select1stESt8equal_toIiESt4hashIiENS4_18_Mod_range_hashingENS4_20_Default_ranged_hashENS4_20_Prime_rehash_policyENS4_17_Hashtable_traitsILb0ELb0ELb1EEEE5clearEv>
    1a9a:	48 8b 45 f8          	mov    -0x8(%rbp),%rax
    1a9e:	48 89 c7             	mov    %rax,%rdi
    1aa1:	e8 bc 04 00 00       	callq  1f62 <_ZNSt10_HashtableIiSt4pairIKiiESaIS2_ENSt8__detail10_Select1stESt8equal_toIiESt4hashIiENS4_18_Mod_range_hashingENS4_20_Default_ranged_hashENS4_20_Prime_rehash_policyENS4_17_Hashtable_traitsILb0ELb0ELb1EEEE21_M_deallocate_bucketsEv>
    1aa6:	48 8b 45 f8          	mov    -0x8(%rbp),%rax
    1aaa:	48 89 c7             	mov    %rax,%rdi
    1aad:	e8 50 fc ff ff       	callq  1702 <_ZNSt8__detail16_Hashtable_allocISaINS_10_Hash_nodeISt4pairIKiiELb0EEEEED1Ev>
    1ab2:	90                   	nop
    1ab3:	c9                   	leaveq 
    1ab4:	c3                   	retq   
    1ab5:	90                   	nop

0000000000001ab6 <_ZNSt12_Vector_baseIiSaIiEE12_Vector_implC1Ev>:
    1ab6:	f3 0f 1e fa          	endbr64 
    1aba:	55                   	push   %rbp
    1abb:	48 89 e5             	mov    %rsp,%rbp
    1abe:	48 83 ec 10          	sub    $0x10,%rsp
    1ac2:	48 89 7d f8          	mov    %rdi,-0x8(%rbp)
    1ac6:	48 8b 45 f8          	mov    -0x8(%rbp),%rax
    1aca:	48 89 c7             	mov    %rax,%rdi
    1acd:	e8 18 02 00 00       	callq  1cea <_ZNSaIiEC1Ev>
    1ad2:	48 8b 45 f8          	mov    -0x8(%rbp),%rax
    1ad6:	48 89 c7             	mov    %rax,%rdi
    1ad9:	e8 b6 04 00 00       	callq  1f94 <_ZNSt12_Vector_baseIiSaIiEE17_Vector_impl_dataC1Ev>
    1ade:	90                   	nop
    1adf:	c9                   	leaveq 
    1ae0:	c3                   	retq   
    1ae1:	90                   	nop

0000000000001ae2 <_ZNSaIiED1Ev>:
    1ae2:	f3 0f 1e fa          	endbr64 
    1ae6:	55                   	push   %rbp
    1ae7:	48 89 e5             	mov    %rsp,%rbp
    1aea:	48 83 ec 10          	sub    $0x10,%rsp
    1aee:	48 89 7d f8          	mov    %rdi,-0x8(%rbp)
    1af2:	48 8b 45 f8          	mov    -0x8(%rbp),%rax
    1af6:	48 89 c7             	mov    %rax,%rdi
    1af9:	e8 c8 04 00 00       	callq  1fc6 <_ZN9__gnu_cxx13new_allocatorIiED1Ev>
    1afe:	90                   	nop
    1aff:	c9                   	leaveq 
    1b00:	c3                   	retq   
    1b01:	90                   	nop

0000000000001b02 <_ZNSt12_Vector_baseIiSaIiEED1Ev>:
    1b02:	f3 0f 1e fa          	endbr64 
    1b06:	55                   	push   %rbp
    1b07:	48 89 e5             	mov    %rsp,%rbp
    1b0a:	48 83 ec 10          	sub    $0x10,%rsp
    1b0e:	48 89 7d f8          	mov    %rdi,-0x8(%rbp)
    1b12:	48 8b 45 f8          	mov    -0x8(%rbp),%rax
    1b16:	48 8b 50 10          	mov    0x10(%rax),%rdx
    1b1a:	48 8b 45 f8          	mov    -0x8(%rbp),%rax
    1b1e:	48 8b 00             	mov    (%rax),%rax
    1b21:	48 29 c2             	sub    %rax,%rdx
    1b24:	48 89 d0             	mov    %rdx,%rax
    1b27:	48 c1 f8 02          	sar    $0x2,%rax
    1b2b:	48 89 c2             	mov    %rax,%rdx
    1b2e:	48 8b 45 f8          	mov    -0x8(%rbp),%rax
    1b32:	48 8b 08             	mov    (%rax),%rcx
    1b35:	48 8b 45 f8          	mov    -0x8(%rbp),%rax
    1b39:	48 89 ce             	mov    %rcx,%rsi
    1b3c:	48 89 c7             	mov    %rax,%rdi
    1b3f:	e8 92 04 00 00       	callq  1fd6 <_ZNSt12_Vector_baseIiSaIiEE13_M_deallocateEPim>
    1b44:	48 8b 45 f8          	mov    -0x8(%rbp),%rax
    1b48:	48 89 c7             	mov    %rax,%rdi
    1b4b:	e8 8c fc ff ff       	callq  17dc <_ZNSt12_Vector_baseIiSaIiEE12_Vector_implD1Ev>
    1b50:	90                   	nop
    1b51:	c9                   	leaveq 
    1b52:	c3                   	retq   
    1b53:	90                   	nop

0000000000001b54 <_ZNSt6vectorIiSaIiEED1Ev>:
    1b54:	f3 0f 1e fa          	endbr64 
    1b58:	55                   	push   %rbp
    1b59:	48 89 e5             	mov    %rsp,%rbp
    1b5c:	48 83 ec 10          	sub    $0x10,%rsp
    1b60:	48 89 7d f8          	mov    %rdi,-0x8(%rbp)
    1b64:	48 8b 45 f8          	mov    -0x8(%rbp),%rax
    1b68:	48 89 c7             	mov    %rax,%rdi
    1b6b:	e8 a0 04 00 00       	callq  2010 <_ZNSt12_Vector_baseIiSaIiEE19_M_get_Tp_allocatorEv>
    1b70:	48 89 c2             	mov    %rax,%rdx
    1b73:	48 8b 45 f8          	mov    -0x8(%rbp),%rax
    1b77:	48 8b 48 08          	mov    0x8(%rax),%rcx
    1b7b:	48 8b 45 f8          	mov    -0x8(%rbp),%rax
    1b7f:	48 8b 00             	mov    (%rax),%rax
    1b82:	48 89 ce             	mov    %rcx,%rsi
    1b85:	48 89 c7             	mov    %rax,%rdi
    1b88:	e8 95 04 00 00       	callq  2022 <_ZSt8_DestroyIPiiEvT_S1_RSaIT0_E>
    1b8d:	48 8b 45 f8          	mov    -0x8(%rbp),%rax
    1b91:	48 89 c7             	mov    %rax,%rdi
    1b94:	e8 69 ff ff ff       	callq  1b02 <_ZNSt12_Vector_baseIiSaIiEED1Ev>
    1b99:	90                   	nop
    1b9a:	c9                   	leaveq 
    1b9b:	c3                   	retq   

0000000000001b9c <_ZNKSt6vectorIiSaIiEE4sizeEv>:
    1b9c:	f3 0f 1e fa          	endbr64 
    1ba0:	55                   	push   %rbp
    1ba1:	48 89 e5             	mov    %rsp,%rbp
    1ba4:	48 89 7d f8          	mov    %rdi,-0x8(%rbp)
    1ba8:	48 8b 45 f8          	mov    -0x8(%rbp),%rax
    1bac:	48 8b 50 08          	mov    0x8(%rax),%rdx
    1bb0:	48 8b 45 f8          	mov    -0x8(%rbp),%rax
    1bb4:	48 8b 00             	mov    (%rax),%rax
    1bb7:	48 29 c2             	sub    %rax,%rdx
    1bba:	48 89 d0             	mov    %rdx,%rax
    1bbd:	48 c1 f8 02          	sar    $0x2,%rax
    1bc1:	5d                   	pop    %rbp
    1bc2:	c3                   	retq   
    1bc3:	90                   	nop

0000000000001bc4 <_ZNSt6vectorIiSaIiEEixEm>:
    1bc4:	f3 0f 1e fa          	endbr64 
    1bc8:	55                   	push   %rbp
    1bc9:	48 89 e5             	mov    %rsp,%rbp
    1bcc:	48 89 7d f8          	mov    %rdi,-0x8(%rbp)
    1bd0:	48 89 75 f0          	mov    %rsi,-0x10(%rbp)
    1bd4:	48 8b 45 f8          	mov    -0x8(%rbp),%rax
    1bd8:	48 8b 00             	mov    (%rax),%rax
    1bdb:	48 8b 55 f0          	mov    -0x10(%rbp),%rdx
    1bdf:	48 c1 e2 02          	shl    $0x2,%rdx
    1be3:	48 01 d0             	add    %rdx,%rax
    1be6:	5d                   	pop    %rbp
    1be7:	c3                   	retq   

0000000000001be8 <_ZNSt13unordered_mapIiiSt4hashIiESt8equal_toIiESaISt4pairIKiiEEE4findERS5_>:
    1be8:	f3 0f 1e fa          	endbr64 
    1bec:	55                   	push   %rbp
    1bed:	48 89 e5             	mov    %rsp,%rbp
    1bf0:	48 83 ec 10          	sub    $0x10,%rsp
    1bf4:	48 89 7d f8          	mov    %rdi,-0x8(%rbp)
    1bf8:	48 89 75 f0          	mov    %rsi,-0x10(%rbp)
    1bfc:	48 8b 45 f8          	mov    -0x8(%rbp),%rax
    1c00:	48 8b 55 f0          	mov    -0x10(%rbp),%rdx
    1c04:	48 89 d6             	mov    %rdx,%rsi
    1c07:	48 89 c7             	mov    %rax,%rdi
    1c0a:	e8 41 04 00 00       	callq  2050 <_ZNSt10_HashtableIiSt4pairIKiiESaIS2_ENSt8__detail10_Select1stESt8equal_toIiESt4hashIiENS4_18_Mod_range_hashingENS4_20_Default_ranged_hashENS4_20_Prime_rehash_policyENS4_17_Hashtable_traitsILb0ELb0ELb1EEEE4findERS1_>
    1c0f:	c9                   	leaveq 
    1c10:	c3                   	retq   
    1c11:	90                   	nop

0000000000001c12 <_ZNSt13unordered_mapIiiSt4hashIiESt8equal_toIiESaISt4pairIKiiEEE3endEv>:
    1c12:	f3 0f 1e fa          	endbr64 
    1c16:	55                   	push   %rbp
    1c17:	48 89 e5             	mov    %rsp,%rbp
    1c1a:	48 83 ec 10          	sub    $0x10,%rsp
    1c1e:	48 89 7d f8          	mov    %rdi,-0x8(%rbp)
    1c22:	48 8b 45 f8          	mov    -0x8(%rbp),%rax
    1c26:	48 89 c7             	mov    %rax,%rdi
    1c29:	e8 da 04 00 00       	callq  2108 <_ZNSt10_HashtableIiSt4pairIKiiESaIS2_ENSt8__detail10_Select1stESt8equal_toIiESt4hashIiENS4_18_Mod_range_hashingENS4_20_Default_ranged_hashENS4_20_Prime_rehash_policyENS4_17_Hashtable_traitsILb0ELb0ELb1EEEE3endEv>
    1c2e:	c9                   	leaveq 
    1c2f:	c3                   	retq   

0000000000001c30 <_ZNSt8__detaileqISt4pairIKiiELb0EEEbRKNS_19_Node_iterator_baseIT_XT0_EEES8_>:
    1c30:	f3 0f 1e fa          	endbr64 
    1c34:	55                   	push   %rbp
    1c35:	48 89 e5             	mov    %rsp,%rbp
    1c38:	48 89 7d f8          	mov    %rdi,-0x8(%rbp)
    1c3c:	48 89 75 f0          	mov    %rsi,-0x10(%rbp)
    1c40:	48 8b 45 f8          	mov    -0x8(%rbp),%rax
    1c44:	48 8b 10             	mov    (%rax),%rdx
    1c47:	48 8b 45 f0          	mov    -0x10(%rbp),%rax
    1c4b:	48 8b 00             	mov    (%rax),%rax
    1c4e:	48 39 c2             	cmp    %rax,%rdx
    1c51:	0f 94 c0             	sete   %al
    1c54:	5d                   	pop    %rbp
    1c55:	c3                   	retq   

0000000000001c56 <_ZNSt13unordered_mapIiiSt4hashIiESt8equal_toIiESaISt4pairIKiiEEEixEOi>:
    1c56:	f3 0f 1e fa          	endbr64 
    1c5a:	55                   	push   %rbp
    1c5b:	48 89 e5             	mov    %rsp,%rbp
    1c5e:	48 83 ec 10          	sub    $0x10,%rsp
    1c62:	48 89 7d f8          	mov    %rdi,-0x8(%rbp)
    1c66:	48 89 75 f0          	mov    %rsi,-0x10(%rbp)
    1c6a:	48 8b 45 f0          	mov    -0x10(%rbp),%rax
    1c6e:	48 89 c7             	mov    %rax,%rdi
    1c71:	e8 dc 04 00 00       	callq  2152 <_ZSt4moveIRiEONSt16remove_referenceIT_E4typeEOS2_>
    1c76:	48 89 c2             	mov    %rax,%rdx
    1c79:	48 8b 45 f8          	mov    -0x8(%rbp),%rax
    1c7d:	48 89 d6             	mov    %rdx,%rsi
    1c80:	48 89 c7             	mov    %rax,%rdi
    1c83:	e8 dc 04 00 00       	callq  2164 <_ZNSt8__detail9_Map_baseIiSt4pairIKiiESaIS3_ENS_10_Select1stESt8equal_toIiESt4hashIiENS_18_Mod_range_hashingENS_20_Default_ranged_hashENS_20_Prime_rehash_policyENS_17_Hashtable_traitsILb0ELb0ELb1EEELb1EEixEOi>
    1c88:	c9                   	leaveq 
    1c89:	c3                   	retq   

0000000000001c8a <_ZNSt13unordered_mapIiiSt4hashIiESt8equal_toIiESaISt4pairIKiiEEEixERS5_>:
    1c8a:	f3 0f 1e fa          	endbr64 
    1c8e:	55                   	push   %rbp
    1c8f:	48 89 e5             	mov    %rsp,%rbp
    1c92:	48 83 ec 10          	sub    $0x10,%rsp
    1c96:	48 89 7d f8          	mov    %rdi,-0x8(%rbp)
    1c9a:	48 89 75 f0          	mov    %rsi,-0x10(%rbp)
    1c9e:	48 8b 45 f8          	mov    -0x8(%rbp),%rax
    1ca2:	48 8b 55 f0          	mov    -0x10(%rbp),%rdx
    1ca6:	48 89 d6             	mov    %rdx,%rsi
    1ca9:	48 89 c7             	mov    %rax,%rdi
    1cac:	e8 cb 05 00 00       	callq  227c <_ZNSt8__detail9_Map_baseIiSt4pairIKiiESaIS3_ENS_10_Select1stESt8equal_toIiESt4hashIiENS_18_Mod_range_hashingENS_20_Default_ranged_hashENS_20_Prime_rehash_policyENS_17_Hashtable_traitsILb0ELb0ELb1EEELb1EEixERS2_>
    1cb1:	c9                   	leaveq 
    1cb2:	c3                   	retq   
    1cb3:	90                   	nop

0000000000001cb4 <_ZNSt6vectorIiSaIiEE9push_backEOi>:
    1cb4:	f3 0f 1e fa          	endbr64 
    1cb8:	55                   	push   %rbp
    1cb9:	48 89 e5             	mov    %rsp,%rbp
    1cbc:	48 83 ec 10          	sub    $0x10,%rsp
    1cc0:	48 89 7d f8          	mov    %rdi,-0x8(%rbp)
    1cc4:	48 89 75 f0          	mov    %rsi,-0x10(%rbp)
    1cc8:	48 8b 45 f0          	mov    -0x10(%rbp),%rax
    1ccc:	48 89 c7             	mov    %rax,%rdi
    1ccf:	e8 7e 04 00 00       	callq  2152 <_ZSt4moveIRiEONSt16remove_referenceIT_E4typeEOS2_>
    1cd4:	48 89 c2             	mov    %rax,%rdx
    1cd7:	48 8b 45 f8          	mov    -0x8(%rbp),%rax
    1cdb:	48 89 d6             	mov    %rdx,%rsi
    1cde:	48 89 c7             	mov    %rax,%rdi
    1ce1:	e8 a2 06 00 00       	callq  2388 <_ZNSt6vectorIiSaIiEE12emplace_backIJiEEEvDpOT_>
    1ce6:	90                   	nop
    1ce7:	c9                   	leaveq 
    1ce8:	c3                   	retq   
    1ce9:	90                   	nop

0000000000001cea <_ZNSaIiEC1Ev>:
    1cea:	f3 0f 1e fa          	endbr64 
    1cee:	55                   	push   %rbp
    1cef:	48 89 e5             	mov    %rsp,%rbp
    1cf2:	48 83 ec 10          	sub    $0x10,%rsp
    1cf6:	48 89 7d f8          	mov    %rdi,-0x8(%rbp)
    1cfa:	48 8b 45 f8          	mov    -0x8(%rbp),%rax
    1cfe:	48 89 c7             	mov    %rax,%rdi
    1d01:	e8 4a 07 00 00       	callq  2450 <_ZN9__gnu_cxx13new_allocatorIiEC1Ev>
    1d06:	90                   	nop
    1d07:	c9                   	leaveq 
    1d08:	c3                   	retq   
    1d09:	90                   	nop

0000000000001d0a <_ZNSt6vectorIiSaIiEEC1ESt16initializer_listIiERKS0_>:
    1d0a:	f3 0f 1e fa          	endbr64 
    1d0e:	55                   	push   %rbp
    1d0f:	48 89 e5             	mov    %rsp,%rbp
    1d12:	53                   	push   %rbx
    1d13:	48 83 ec 38          	sub    $0x38,%rsp
    1d17:	48 89 7d d8          	mov    %rdi,-0x28(%rbp)
    1d1b:	48 89 f0             	mov    %rsi,%rax
    1d1e:	48 89 d6             	mov    %rdx,%rsi
    1d21:	48 89 f2             	mov    %rsi,%rdx
    1d24:	48 89 45 c0          	mov    %rax,-0x40(%rbp)
    1d28:	48 89 55 c8          	mov    %rdx,-0x38(%rbp)
    1d2c:	48 89 4d d0          	mov    %rcx,-0x30(%rbp)
    1d30:	64 48 8b 04 25 28 00 	mov    %fs:0x28,%rax
    1d37:	00 00 
    1d39:	48 89 45 e8          	mov    %rax,-0x18(%rbp)
    1d3d:	31 c0                	xor    %eax,%eax
    1d3f:	48 8b 45 d8          	mov    -0x28(%rbp),%rax
    1d43:	48 8b 55 d0          	mov    -0x30(%rbp),%rdx
    1d47:	48 89 d6             	mov    %rdx,%rsi
    1d4a:	48 89 c7             	mov    %rax,%rdi
    1d4d:	e8 0e 07 00 00       	callq  2460 <_ZNSt12_Vector_baseIiSaIiEEC1ERKS0_>
    1d52:	48 8d 45 c0          	lea    -0x40(%rbp),%rax
    1d56:	48 89 c7             	mov    %rax,%rdi
    1d59:	e8 42 07 00 00       	callq  24a0 <_ZNKSt16initializer_listIiE3endEv>
    1d5e:	48 89 c3             	mov    %rax,%rbx
    1d61:	48 8d 45 c0          	lea    -0x40(%rbp),%rax
    1d65:	48 89 c7             	mov    %rax,%rdi
    1d68:	e8 1d 07 00 00       	callq  248a <_ZNKSt16initializer_listIiE5beginEv>
    1d6d:	48 89 c1             	mov    %rax,%rcx
    1d70:	48 8b 45 d8          	mov    -0x28(%rbp),%rax
    1d74:	48 89 da             	mov    %rbx,%rdx
    1d77:	48 89 ce             	mov    %rcx,%rsi
    1d7a:	48 89 c7             	mov    %rax,%rdi
    1d7d:	e8 58 07 00 00       	callq  24da <_ZNSt6vectorIiSaIiEE19_M_range_initializeIPKiEEvT_S5_St20forward_iterator_tag>
    1d82:	eb 1e                	jmp    1da2 <_ZNSt6vectorIiSaIiEEC1ESt16initializer_listIiERKS0_+0x98>
    1d84:	f3 0f 1e fa          	endbr64 
    1d88:	48 89 c3             	mov    %rax,%rbx
    1d8b:	48 8b 45 d8          	mov    -0x28(%rbp),%rax
    1d8f:	48 89 c7             	mov    %rax,%rdi
    1d92:	e8 6b fd ff ff       	callq  1b02 <_ZNSt12_Vector_baseIiSaIiEED1Ev>
    1d97:	48 89 d8             	mov    %rbx,%rax
    1d9a:	48 89 c7             	mov    %rax,%rdi
    1d9d:	e8 ae f4 ff ff       	callq  1250 <_Unwind_Resume@plt>
    1da2:	48 8b 45 e8          	mov    -0x18(%rbp),%rax
    1da6:	64 48 33 04 25 28 00 	xor    %fs:0x28,%rax
    1dad:	00 00 
    1daf:	74 05                	je     1db6 <_ZNSt6vectorIiSaIiEEC1ESt16initializer_listIiERKS0_+0xac>
    1db1:	e8 2a f4 ff ff       	callq  11e0 <__stack_chk_fail@plt>
    1db6:	48 83 c4 38          	add    $0x38,%rsp
    1dba:	5b                   	pop    %rbx
    1dbb:	5d                   	pop    %rbp
    1dbc:	c3                   	retq   
    1dbd:	90                   	nop

0000000000001dbe <_ZNSt6vectorIiSaIiEE5beginEv>:
    1dbe:	f3 0f 1e fa          	endbr64 
    1dc2:	55                   	push   %rbp
    1dc3:	48 89 e5             	mov    %rsp,%rbp
    1dc6:	48 83 ec 20          	sub    $0x20,%rsp
    1dca:	48 89 7d e8          	mov    %rdi,-0x18(%rbp)
    1dce:	64 48 8b 04 25 28 00 	mov    %fs:0x28,%rax
    1dd5:	00 00 
    1dd7:	48 89 45 f8          	mov    %rax,-0x8(%rbp)
    1ddb:	31 c0                	xor    %eax,%eax
    1ddd:	48 8b 55 e8          	mov    -0x18(%rbp),%rdx
    1de1:	48 8d 45 f0          	lea    -0x10(%rbp),%rax
    1de5:	48 89 d6             	mov    %rdx,%rsi
    1de8:	48 89 c7             	mov    %rax,%rdi
    1deb:	e8 9e 07 00 00       	callq  258e <_ZN9__gnu_cxx17__normal_iteratorIPiSt6vectorIiSaIiEEEC1ERKS1_>
    1df0:	48 8b 45 f0          	mov    -0x10(%rbp),%rax
    1df4:	48 8b 4d f8          	mov    -0x8(%rbp),%rcx
    1df8:	64 48 33 0c 25 28 00 	xor    %fs:0x28,%rcx
    1dff:	00 00 
    1e01:	74 05                	je     1e08 <_ZNSt6vectorIiSaIiEE5beginEv+0x4a>
    1e03:	e8 d8 f3 ff ff       	callq  11e0 <__stack_chk_fail@plt>
    1e08:	c9                   	leaveq 
    1e09:	c3                   	retq   

0000000000001e0a <_ZNSt6vectorIiSaIiEE3endEv>:
    1e0a:	f3 0f 1e fa          	endbr64 
    1e0e:	55                   	push   %rbp
    1e0f:	48 89 e5             	mov    %rsp,%rbp
    1e12:	48 83 ec 20          	sub    $0x20,%rsp
    1e16:	48 89 7d e8          	mov    %rdi,-0x18(%rbp)
    1e1a:	64 48 8b 04 25 28 00 	mov    %fs:0x28,%rax
    1e21:	00 00 
    1e23:	48 89 45 f8          	mov    %rax,-0x8(%rbp)
    1e27:	31 c0                	xor    %eax,%eax
    1e29:	48 8b 45 e8          	mov    -0x18(%rbp),%rax
    1e2d:	48 8d 50 08          	lea    0x8(%rax),%rdx
    1e31:	48 8d 45 f0          	lea    -0x10(%rbp),%rax
    1e35:	48 89 d6             	mov    %rdx,%rsi
    1e38:	48 89 c7             	mov    %rax,%rdi
    1e3b:	e8 4e 07 00 00       	callq  258e <_ZN9__gnu_cxx17__normal_iteratorIPiSt6vectorIiSaIiEEEC1ERKS1_>
    1e40:	48 8b 45 f0          	mov    -0x10(%rbp),%rax
    1e44:	48 8b 4d f8          	mov    -0x8(%rbp),%rcx
    1e48:	64 48 33 0c 25 28 00 	xor    %fs:0x28,%rcx
    1e4f:	00 00 
    1e51:	74 05                	je     1e58 <_ZNSt6vectorIiSaIiEE3endEv+0x4e>
    1e53:	e8 88 f3 ff ff       	callq  11e0 <__stack_chk_fail@plt>
    1e58:	c9                   	leaveq 
    1e59:	c3                   	retq   

0000000000001e5a <_ZN9__gnu_cxxneIPiSt6vectorIiSaIiEEEEbRKNS_17__normal_iteratorIT_T0_EESA_>:
    1e5a:	f3 0f 1e fa          	endbr64 
    1e5e:	55                   	push   %rbp
    1e5f:	48 89 e5             	mov    %rsp,%rbp
    1e62:	53                   	push   %rbx
    1e63:	48 83 ec 18          	sub    $0x18,%rsp
    1e67:	48 89 7d e8          	mov    %rdi,-0x18(%rbp)
    1e6b:	48 89 75 e0          	mov    %rsi,-0x20(%rbp)
    1e6f:	48 8b 45 e8          	mov    -0x18(%rbp),%rax
    1e73:	48 89 c7             	mov    %rax,%rdi
    1e76:	e8 35 07 00 00       	callq  25b0 <_ZNK9__gnu_cxx17__normal_iteratorIPiSt6vectorIiSaIiEEE4baseEv>
    1e7b:	48 8b 18             	mov    (%rax),%rbx
    1e7e:	48 8b 45 e0          	mov    -0x20(%rbp),%rax
    1e82:	48 89 c7             	mov    %rax,%rdi
    1e85:	e8 26 07 00 00       	callq  25b0 <_ZNK9__gnu_cxx17__normal_iteratorIPiSt6vectorIiSaIiEEE4baseEv>
    1e8a:	48 8b 00             	mov    (%rax),%rax
    1e8d:	48 39 c3             	cmp    %rax,%rbx
    1e90:	0f 95 c0             	setne  %al
    1e93:	48 83 c4 18          	add    $0x18,%rsp
    1e97:	5b                   	pop    %rbx
    1e98:	5d                   	pop    %rbp
    1e99:	c3                   	retq   

0000000000001e9a <_ZN9__gnu_cxx17__normal_iteratorIPiSt6vectorIiSaIiEEEppEv>:
    1e9a:	f3 0f 1e fa          	endbr64 
    1e9e:	55                   	push   %rbp
    1e9f:	48 89 e5             	mov    %rsp,%rbp
    1ea2:	48 89 7d f8          	mov    %rdi,-0x8(%rbp)
    1ea6:	48 8b 45 f8          	mov    -0x8(%rbp),%rax
    1eaa:	48 8b 00             	mov    (%rax),%rax
    1ead:	48 8d 50 04          	lea    0x4(%rax),%rdx
    1eb1:	48 8b 45 f8          	mov    -0x8(%rbp),%rax
    1eb5:	48 89 10             	mov    %rdx,(%rax)
    1eb8:	48 8b 45 f8          	mov    -0x8(%rbp),%rax
    1ebc:	5d                   	pop    %rbp
    1ebd:	c3                   	retq   

0000000000001ebe <_ZNK9__gnu_cxx17__normal_iteratorIPiSt6vectorIiSaIiEEEdeEv>:
    1ebe:	f3 0f 1e fa          	endbr64 
    1ec2:	55                   	push   %rbp
    1ec3:	48 89 e5             	mov    %rsp,%rbp
    1ec6:	48 89 7d f8          	mov    %rdi,-0x8(%rbp)
    1eca:	48 8b 45 f8          	mov    -0x8(%rbp),%rax
    1ece:	48 8b 00             	mov    (%rax),%rax
    1ed1:	5d                   	pop    %rbp
    1ed2:	c3                   	retq   
    1ed3:	90                   	nop

0000000000001ed4 <_ZN9__gnu_cxx13new_allocatorINSt8__detail10_Hash_nodeISt4pairIKiiELb0EEEEC1Ev>:
    1ed4:	f3 0f 1e fa          	endbr64 
    1ed8:	55                   	push   %rbp
    1ed9:	48 89 e5             	mov    %rsp,%rbp
    1edc:	48 89 7d f8          	mov    %rdi,-0x8(%rbp)
    1ee0:	90                   	nop
    1ee1:	5d                   	pop    %rbp
    1ee2:	c3                   	retq   
    1ee3:	90                   	nop

0000000000001ee4 <_ZN9__gnu_cxx13new_allocatorINSt8__detail10_Hash_nodeISt4pairIKiiELb0EEEED1Ev>:
    1ee4:	f3 0f 1e fa          	endbr64 
    1ee8:	55                   	push   %rbp
    1ee9:	48 89 e5             	mov    %rsp,%rbp
    1eec:	48 89 7d f8          	mov    %rdi,-0x8(%rbp)
    1ef0:	90                   	nop
    1ef1:	5d                   	pop    %rbp
    1ef2:	c3                   	retq   
    1ef3:	90                   	nop

0000000000001ef4 <_ZNSt10_HashtableIiSt4pairIKiiESaIS2_ENSt8__detail10_Select1stESt8equal_toIiESt4hashIiENS4_18_Mod_range_hashingENS4_20_Default_ranged_hashENS4_20_Prime_rehash_policyENS4_17_Hashtable_traitsILb0ELb0ELb1EEEE5clearEv>:
    1ef4:	f3 0f 1e fa          	endbr64 
    1ef8:	55                   	push   %rbp
    1ef9:	48 89 e5             	mov    %rsp,%rbp
    1efc:	48 83 ec 10          	sub    $0x10,%rsp
    1f00:	48 89 7d f8          	mov    %rdi,-0x8(%rbp)
    1f04:	48 8b 45 f8          	mov    -0x8(%rbp),%rax
    1f08:	48 89 c7             	mov    %rax,%rdi
    1f0b:	e8 b2 06 00 00       	callq  25c2 <_ZNKSt10_HashtableIiSt4pairIKiiESaIS2_ENSt8__detail10_Select1stESt8equal_toIiESt4hashIiENS4_18_Mod_range_hashingENS4_20_Default_ranged_hashENS4_20_Prime_rehash_policyENS4_17_Hashtable_traitsILb0ELb0ELb1EEEE8_M_beginEv>
    1f10:	48 89 c2             	mov    %rax,%rdx
    1f13:	48 8b 45 f8          	mov    -0x8(%rbp),%rax
    1f17:	48 89 d6             	mov    %rdx,%rsi
    1f1a:	48 89 c7             	mov    %rax,%rdi
    1f1d:	e8 b6 06 00 00       	callq  25d8 <_ZNSt8__detail16_Hashtable_allocISaINS_10_Hash_nodeISt4pairIKiiELb0EEEEE19_M_deallocate_nodesEPS5_>
    1f22:	48 8b 45 f8          	mov    -0x8(%rbp),%rax
    1f26:	48 8b 40 08          	mov    0x8(%rax),%rax
    1f2a:	48 8d 14 c5 00 00 00 	lea    0x0(,%rax,8),%rdx
    1f31:	00 
    1f32:	48 8b 45 f8          	mov    -0x8(%rbp),%rax
    1f36:	48 8b 00             	mov    (%rax),%rax
    1f39:	be 00 00 00 00       	mov    $0x0,%esi
    1f3e:	48 89 c7             	mov    %rax,%rdi
    1f41:	e8 3a f2 ff ff       	callq  1180 <memset@plt>
    1f46:	48 8b 45 f8          	mov    -0x8(%rbp),%rax
    1f4a:	48 c7 40 18 00 00 00 	movq   $0x0,0x18(%rax)
    1f51:	00 
    1f52:	48 8b 45 f8          	mov    -0x8(%rbp),%rax
    1f56:	48 c7 40 10 00 00 00 	movq   $0x0,0x10(%rax)
    1f5d:	00 
    1f5e:	90                   	nop
    1f5f:	c9                   	leaveq 
    1f60:	c3                   	retq   
    1f61:	90                   	nop

0000000000001f62 <_ZNSt10_HashtableIiSt4pairIKiiESaIS2_ENSt8__detail10_Select1stESt8equal_toIiESt4hashIiENS4_18_Mod_range_hashingENS4_20_Default_ranged_hashENS4_20_Prime_rehash_policyENS4_17_Hashtable_traitsILb0ELb0ELb1EEEE21_M_deallocate_bucketsEv>:
    1f62:	f3 0f 1e fa          	endbr64 
    1f66:	55                   	push   %rbp
    1f67:	48 89 e5             	mov    %rsp,%rbp
    1f6a:	48 83 ec 10          	sub    $0x10,%rsp
    1f6e:	48 89 7d f8          	mov    %rdi,-0x8(%rbp)
    1f72:	48 8b 45 f8          	mov    -0x8(%rbp),%rax
    1f76:	48 8b 50 08          	mov    0x8(%rax),%rdx
    1f7a:	48 8b 45 f8          	mov    -0x8(%rbp),%rax
    1f7e:	48 8b 08             	mov    (%rax),%rcx
    1f81:	48 8b 45 f8          	mov    -0x8(%rbp),%rax
    1f85:	48 89 ce             	mov    %rcx,%rsi
    1f88:	48 89 c7             	mov    %rax,%rdi
    1f8b:	e8 94 06 00 00       	callq  2624 <_ZNSt10_HashtableIiSt4pairIKiiESaIS2_ENSt8__detail10_Select1stESt8equal_toIiESt4hashIiENS4_18_Mod_range_hashingENS4_20_Default_ranged_hashENS4_20_Prime_rehash_policyENS4_17_Hashtable_traitsILb0ELb0ELb1EEEE21_M_deallocate_bucketsEPPNS4_15_Hash_node_baseEm>
    1f90:	90                   	nop
    1f91:	c9                   	leaveq 
    1f92:	c3                   	retq   
    1f93:	90                   	nop

0000000000001f94 <_ZNSt12_Vector_baseIiSaIiEE17_Vector_impl_dataC1Ev>:
    1f94:	f3 0f 1e fa          	endbr64 
    1f98:	55                   	push   %rbp
    1f99:	48 89 e5             	mov    %rsp,%rbp
    1f9c:	48 89 7d f8          	mov    %rdi,-0x8(%rbp)
    1fa0:	48 8b 45 f8          	mov    -0x8(%rbp),%rax
    1fa4:	48 c7 00 00 00 00 00 	movq   $0x0,(%rax)
    1fab:	48 8b 45 f8          	mov    -0x8(%rbp),%rax
    1faf:	48 c7 40 08 00 00 00 	movq   $0x0,0x8(%rax)
    1fb6:	00 
    1fb7:	48 8b 45 f8          	mov    -0x8(%rbp),%rax
    1fbb:	48 c7 40 10 00 00 00 	movq   $0x0,0x10(%rax)
    1fc2:	00 
    1fc3:	90                   	nop
    1fc4:	5d                   	pop    %rbp
    1fc5:	c3                   	retq   

0000000000001fc6 <_ZN9__gnu_cxx13new_allocatorIiED1Ev>:
    1fc6:	f3 0f 1e fa          	endbr64 
    1fca:	55                   	push   %rbp
    1fcb:	48 89 e5             	mov    %rsp,%rbp
    1fce:	48 89 7d f8          	mov    %rdi,-0x8(%rbp)
    1fd2:	90                   	nop
    1fd3:	5d                   	pop    %rbp
    1fd4:	c3                   	retq   
    1fd5:	90                   	nop

0000000000001fd6 <_ZNSt12_Vector_baseIiSaIiEE13_M_deallocateEPim>:
    1fd6:	f3 0f 1e fa          	endbr64 
    1fda:	55                   	push   %rbp
    1fdb:	48 89 e5             	mov    %rsp,%rbp
    1fde:	48 83 ec 20          	sub    $0x20,%rsp
    1fe2:	48 89 7d f8          	mov    %rdi,-0x8(%rbp)
    1fe6:	48 89 75 f0          	mov    %rsi,-0x10(%rbp)
    1fea:	48 89 55 e8          	mov    %rdx,-0x18(%rbp)
    1fee:	48 83 7d f0 00       	cmpq   $0x0,-0x10(%rbp)
    1ff3:	74 17                	je     200c <_ZNSt12_Vector_baseIiSaIiEE13_M_deallocateEPim+0x36>
    1ff5:	48 8b 45 f8          	mov    -0x8(%rbp),%rax
    1ff9:	48 8b 55 e8          	mov    -0x18(%rbp),%rdx
    1ffd:	48 8b 4d f0          	mov    -0x10(%rbp),%rcx
    2001:	48 89 ce             	mov    %rcx,%rsi
    2004:	48 89 c7             	mov    %rax,%rdi
    2007:	e8 63 06 00 00       	callq  266f <_ZNSt16allocator_traitsISaIiEE10deallocateERS0_Pim>
    200c:	90                   	nop
    200d:	c9                   	leaveq 
    200e:	c3                   	retq   
    200f:	90                   	nop

0000000000002010 <_ZNSt12_Vector_baseIiSaIiEE19_M_get_Tp_allocatorEv>:
    2010:	f3 0f 1e fa          	endbr64 
    2014:	55                   	push   %rbp
    2015:	48 89 e5             	mov    %rsp,%rbp
    2018:	48 89 7d f8          	mov    %rdi,-0x8(%rbp)
    201c:	48 8b 45 f8          	mov    -0x8(%rbp),%rax
    2020:	5d                   	pop    %rbp
    2021:	c3                   	retq   

0000000000002022 <_ZSt8_DestroyIPiiEvT_S1_RSaIT0_E>:
    2022:	f3 0f 1e fa          	endbr64 
    2026:	55                   	push   %rbp
    2027:	48 89 e5             	mov    %rsp,%rbp
    202a:	48 83 ec 20          	sub    $0x20,%rsp
    202e:	48 89 7d f8          	mov    %rdi,-0x8(%rbp)
    2032:	48 89 75 f0          	mov    %rsi,-0x10(%rbp)
    2036:	48 89 55 e8          	mov    %rdx,-0x18(%rbp)
    203a:	48 8b 55 f0          	mov    -0x10(%rbp),%rdx
    203e:	48 8b 45 f8          	mov    -0x8(%rbp),%rax
    2042:	48 89 d6             	mov    %rdx,%rsi
    2045:	48 89 c7             	mov    %rax,%rdi
    2048:	e8 54 06 00 00       	callq  26a1 <_ZSt8_DestroyIPiEvT_S1_>
    204d:	90                   	nop
    204e:	c9                   	leaveq 
    204f:	c3                   	retq   

0000000000002050 <_ZNSt10_HashtableIiSt4pairIKiiESaIS2_ENSt8__detail10_Select1stESt8equal_toIiESt4hashIiENS4_18_Mod_range_hashingENS4_20_Default_ranged_hashENS4_20_Prime_rehash_policyENS4_17_Hashtable_traitsILb0ELb0ELb1EEEE4findERS1_>:
    2050:	f3 0f 1e fa          	endbr64 
    2054:	55                   	push   %rbp
    2055:	48 89 e5             	mov    %rsp,%rbp
    2058:	48 83 ec 40          	sub    $0x40,%rsp
    205c:	48 89 7d c8          	mov    %rdi,-0x38(%rbp)
    2060:	48 89 75 c0          	mov    %rsi,-0x40(%rbp)
    2064:	64 48 8b 04 25 28 00 	mov    %fs:0x28,%rax
    206b:	00 00 
    206d:	48 89 45 f8          	mov    %rax,-0x8(%rbp)
    2071:	31 c0                	xor    %eax,%eax
    2073:	48 8b 55 c0          	mov    -0x40(%rbp),%rdx
    2077:	48 8b 45 c8          	mov    -0x38(%rbp),%rax
    207b:	48 89 d6             	mov    %rdx,%rsi
    207e:	48 89 c7             	mov    %rax,%rdi
    2081:	e8 46 06 00 00       	callq  26cc <_ZNKSt8__detail15_Hash_code_baseIiSt4pairIKiiENS_10_Select1stESt4hashIiENS_18_Mod_range_hashingENS_20_Default_ranged_hashELb0EE12_M_hash_codeERS2_>
    2086:	48 89 45 e0          	mov    %rax,-0x20(%rbp)
    208a:	48 8b 55 e0          	mov    -0x20(%rbp),%rdx
    208e:	48 8b 4d c0          	mov    -0x40(%rbp),%rcx
    2092:	48 8b 45 c8          	mov    -0x38(%rbp),%rax
    2096:	48 89 ce             	mov    %rcx,%rsi
    2099:	48 89 c7             	mov    %rax,%rdi
    209c:	e8 61 06 00 00       	callq  2702 <_ZNKSt10_HashtableIiSt4pairIKiiESaIS2_ENSt8__detail10_Select1stESt8equal_toIiESt4hashIiENS4_18_Mod_range_hashingENS4_20_Default_ranged_hashENS4_20_Prime_rehash_policyENS4_17_Hashtable_traitsILb0ELb0ELb1EEEE15_M_bucket_indexERS1_m>
    20a1:	48 89 45 e8          	mov    %rax,-0x18(%rbp)
    20a5:	48 8b 4d e0          	mov    -0x20(%rbp),%rcx
    20a9:	48 8b 55 c0          	mov    -0x40(%rbp),%rdx
    20ad:	48 8b 75 e8          	mov    -0x18(%rbp),%rsi
    20b1:	48 8b 45 c8          	mov    -0x38(%rbp),%rax
    20b5:	48 89 c7             	mov    %rax,%rdi
    20b8:	e8 7b 06 00 00       	callq  2738 <_ZNKSt10_HashtableIiSt4pairIKiiESaIS2_ENSt8__detail10_Select1stESt8equal_toIiESt4hashIiENS4_18_Mod_range_hashingENS4_20_Default_ranged_hashENS4_20_Prime_rehash_policyENS4_17_Hashtable_traitsILb0ELb0ELb1EEEE12_M_find_nodeEmRS1_m>
    20bd:	48 89 45 f0          	mov    %rax,-0x10(%rbp)
    20c1:	48 83 7d f0 00       	cmpq   $0x0,-0x10(%rbp)
    20c6:	74 15                	je     20dd <_ZNSt10_HashtableIiSt4pairIKiiESaIS2_ENSt8__detail10_Select1stESt8equal_toIiESt4hashIiENS4_18_Mod_range_hashingENS4_20_Default_ranged_hashENS4_20_Prime_rehash_policyENS4_17_Hashtable_traitsILb0ELb0ELb1EEEE4findERS1_+0x8d>
    20c8:	48 8b 55 f0          	mov    -0x10(%rbp),%rdx
    20cc:	48 8d 45 d8          	lea    -0x28(%rbp),%rax
    20d0:	48 89 d6             	mov    %rdx,%rsi
    20d3:	48 89 c7             	mov    %rax,%rdi
    20d6:	e8 ad 06 00 00       	callq  2788 <_ZNSt8__detail14_Node_iteratorISt4pairIKiiELb0ELb0EEC1EPNS_10_Hash_nodeIS3_Lb0EEE>
    20db:	eb 10                	jmp    20ed <_ZNSt10_HashtableIiSt4pairIKiiESaIS2_ENSt8__detail10_Select1stESt8equal_toIiESt4hashIiENS4_18_Mod_range_hashingENS4_20_Default_ranged_hashENS4_20_Prime_rehash_policyENS4_17_Hashtable_traitsILb0ELb0ELb1EEEE4findERS1_+0x9d>
    20dd:	48 8b 45 c8          	mov    -0x38(%rbp),%rax
    20e1:	48 89 c7             	mov    %rax,%rdi
    20e4:	e8 1f 00 00 00       	callq  2108 <_ZNSt10_HashtableIiSt4pairIKiiESaIS2_ENSt8__detail10_Select1stESt8equal_toIiESt4hashIiENS4_18_Mod_range_hashingENS4_20_Default_ranged_hashENS4_20_Prime_rehash_policyENS4_17_Hashtable_traitsILb0ELb0ELb1EEEE3endEv>
    20e9:	48 89 45 d8          	mov    %rax,-0x28(%rbp)
    20ed:	48 8b 45 d8          	mov    -0x28(%rbp),%rax
    20f1:	48 8b 4d f8          	mov    -0x8(%rbp),%rcx
    20f5:	64 48 33 0c 25 28 00 	xor    %fs:0x28,%rcx
    20fc:	00 00 
    20fe:	74 05                	je     2105 <_ZNSt10_HashtableIiSt4pairIKiiESaIS2_ENSt8__detail10_Select1stESt8equal_toIiESt4hashIiENS4_18_Mod_range_hashingENS4_20_Default_ranged_hashENS4_20_Prime_rehash_policyENS4_17_Hashtable_traitsILb0ELb0ELb1EEEE4findERS1_+0xb5>
    2100:	e8 db f0 ff ff       	callq  11e0 <__stack_chk_fail@plt>
    2105:	c9                   	leaveq 
    2106:	c3                   	retq   
    2107:	90                   	nop

0000000000002108 <_ZNSt10_HashtableIiSt4pairIKiiESaIS2_ENSt8__detail10_Select1stESt8equal_toIiESt4hashIiENS4_18_Mod_range_hashingENS4_20_Default_ranged_hashENS4_20_Prime_rehash_policyENS4_17_Hashtable_traitsILb0ELb0ELb1EEEE3endEv>:
    2108:	f3 0f 1e fa          	endbr64 
    210c:	55                   	push   %rbp
    210d:	48 89 e5             	mov    %rsp,%rbp
    2110:	48 83 ec 20          	sub    $0x20,%rsp
    2114:	48 89 7d e8          	mov    %rdi,-0x18(%rbp)
    2118:	64 48 8b 04 25 28 00 	mov    %fs:0x28,%rax
    211f:	00 00 
    2121:	48 89 45 f8          	mov    %rax,-0x8(%rbp)
    2125:	31 c0                	xor    %eax,%eax
    2127:	48 8d 45 f0          	lea    -0x10(%rbp),%rax
    212b:	be 00 00 00 00       	mov    $0x0,%esi
    2130:	48 89 c7             	mov    %rax,%rdi
    2133:	e8 50 06 00 00       	callq  2788 <_ZNSt8__detail14_Node_iteratorISt4pairIKiiELb0ELb0EEC1EPNS_10_Hash_nodeIS3_Lb0EEE>
    2138:	48 8b 45 f0          	mov    -0x10(%rbp),%rax
    213c:	48 8b 55 f8          	mov    -0x8(%rbp),%rdx
    2140:	64 48 33 14 25 28 00 	xor    %fs:0x28,%rdx
    2147:	00 00 
    2149:	74 05                	je     2150 <_ZNSt10_HashtableIiSt4pairIKiiESaIS2_ENSt8__detail10_Select1stESt8equal_toIiESt4hashIiENS4_18_Mod_range_hashingENS4_20_Default_ranged_hashENS4_20_Prime_rehash_policyENS4_17_Hashtable_traitsILb0ELb0ELb1EEEE3endEv+0x48>
    214b:	e8 90 f0 ff ff       	callq  11e0 <__stack_chk_fail@plt>
    2150:	c9                   	leaveq 
    2151:	c3                   	retq   

0000000000002152 <_ZSt4moveIRiEONSt16remove_referenceIT_E4typeEOS2_>:
    2152:	f3 0f 1e fa          	endbr64 
    2156:	55                   	push   %rbp
    2157:	48 89 e5             	mov    %rsp,%rbp
    215a:	48 89 7d f8          	mov    %rdi,-0x8(%rbp)
    215e:	48 8b 45 f8          	mov    -0x8(%rbp),%rax
    2162:	5d                   	pop    %rbp
    2163:	c3                   	retq   

0000000000002164 <_ZNSt8__detail9_Map_baseIiSt4pairIKiiESaIS3_ENS_10_Select1stESt8equal_toIiESt4hashIiENS_18_Mod_range_hashingENS_20_Default_ranged_hashENS_20_Prime_rehash_policyENS_17_Hashtable_traitsILb0ELb0ELb1EEELb1EEixEOi>:
    2164:	f3 0f 1e fa          	endbr64 
    2168:	55                   	push   %rbp
    2169:	48 89 e5             	mov    %rsp,%rbp
    216c:	48 83 ec 50          	sub    $0x50,%rsp
    2170:	48 89 7d b8          	mov    %rdi,-0x48(%rbp)
    2174:	48 89 75 b0          	mov    %rsi,-0x50(%rbp)
    2178:	64 48 8b 04 25 28 00 	mov    %fs:0x28,%rax
    217f:	00 00 
    2181:	48 89 45 f8          	mov    %rax,-0x8(%rbp)
    2185:	31 c0                	xor    %eax,%eax
    2187:	48 8b 45 b8          	mov    -0x48(%rbp),%rax
    218b:	48 89 45 d8          	mov    %rax,-0x28(%rbp)
    218f:	48 8b 55 b0          	mov    -0x50(%rbp),%rdx
    2193:	48 8b 45 d8          	mov    -0x28(%rbp),%rax
    2197:	48 89 d6             	mov    %rdx,%rsi
    219a:	48 89 c7             	mov    %rax,%rdi
    219d:	e8 2a 05 00 00       	callq  26cc <_ZNKSt8__detail15_Hash_code_baseIiSt4pairIKiiENS_10_Select1stESt4hashIiENS_18_Mod_range_hashingENS_20_Default_ranged_hashELb0EE12_M_hash_codeERS2_>
    21a2:	48 89 45 e0          	mov    %rax,-0x20(%rbp)
    21a6:	48 8b 55 e0          	mov    -0x20(%rbp),%rdx
    21aa:	48 8b 4d b0          	mov    -0x50(%rbp),%rcx
    21ae:	48 8b 45 d8          	mov    -0x28(%rbp),%rax
    21b2:	48 89 ce             	mov    %rcx,%rsi
    21b5:	48 89 c7             	mov    %rax,%rdi
    21b8:	e8 45 05 00 00       	callq  2702 <_ZNKSt10_HashtableIiSt4pairIKiiESaIS2_ENSt8__detail10_Select1stESt8equal_toIiESt4hashIiENS4_18_Mod_range_hashingENS4_20_Default_ranged_hashENS4_20_Prime_rehash_policyENS4_17_Hashtable_traitsILb0ELb0ELb1EEEE15_M_bucket_indexERS1_m>
    21bd:	48 89 45 e8          	mov    %rax,-0x18(%rbp)
    21c1:	48 8b 4d e0          	mov    -0x20(%rbp),%rcx
    21c5:	48 8b 55 b0          	mov    -0x50(%rbp),%rdx
    21c9:	48 8b 75 e8          	mov    -0x18(%rbp),%rsi
    21cd:	48 8b 45 d8          	mov    -0x28(%rbp),%rax
    21d1:	48 89 c7             	mov    %rax,%rdi
    21d4:	e8 5f 05 00 00       	callq  2738 <_ZNKSt10_HashtableIiSt4pairIKiiESaIS2_ENSt8__detail10_Select1stESt8equal_toIiESt4hashIiENS4_18_Mod_range_hashingENS4_20_Default_ranged_hashENS4_20_Prime_rehash_policyENS4_17_Hashtable_traitsILb0ELb0ELb1EEEE12_M_find_nodeEmRS1_m>
    21d9:	48 89 45 f0          	mov    %rax,-0x10(%rbp)
    21dd:	48 83 7d f0 00       	cmpq   $0x0,-0x10(%rbp)
    21e2:	75 71                	jne    2255 <_ZNSt8__detail9_Map_baseIiSt4pairIKiiESaIS3_ENS_10_Select1stESt8equal_toIiESt4hashIiENS_18_Mod_range_hashingENS_20_Default_ranged_hashENS_20_Prime_rehash_policyENS_17_Hashtable_traitsILb0ELb0ELb1EEELb1EEixEOi+0xf1>
    21e4:	48 8b 45 b0          	mov    -0x50(%rbp),%rax
    21e8:	48 89 c7             	mov    %rax,%rdi
    21eb:	e8 62 ff ff ff       	callq  2152 <_ZSt4moveIRiEONSt16remove_referenceIT_E4typeEOS2_>
    21f0:	48 89 c2             	mov    %rax,%rdx
    21f3:	48 8d 45 d0          	lea    -0x30(%rbp),%rax
    21f7:	48 89 d6             	mov    %rdx,%rsi
    21fa:	48 89 c7             	mov    %rax,%rdi
    21fd:	e8 da 05 00 00       	callq  27dc <_ZSt16forward_as_tupleIJiEESt5tupleIJDpOT_EES3_>
    2202:	48 8d 4d cf          	lea    -0x31(%rbp),%rcx
    2206:	48 8d 55 d0          	lea    -0x30(%rbp),%rdx
    220a:	48 8b 45 d8          	mov    -0x28(%rbp),%rax
    220e:	48 8d 35 f3 3d 00 00 	lea    0x3df3(%rip),%rsi        # 6008 <_ZStL19piecewise_construct>
    2215:	48 89 c7             	mov    %rax,%rdi
    2218:	e8 37 06 00 00       	callq  2854 <_ZNSt8__detail16_Hashtable_allocISaINS_10_Hash_nodeISt4pairIKiiELb0EEEEE16_M_allocate_nodeIJRKSt21piecewise_construct_tSt5tupleIJOiEESC_IJEEEEEPS5_DpOT_>
    221d:	48 89 45 f0          	mov    %rax,-0x10(%rbp)
    2221:	48 8b 4d f0          	mov    -0x10(%rbp),%rcx
    2225:	48 8b 55 e0          	mov    -0x20(%rbp),%rdx
    2229:	48 8b 75 e8          	mov    -0x18(%rbp),%rsi
    222d:	48 8b 45 d8          	mov    -0x28(%rbp),%rax
    2231:	41 b8 01 00 00 00    	mov    $0x1,%r8d
    2237:	48 89 c7             	mov    %rax,%rdi
    223a:	e8 39 07 00 00       	callq  2978 <_ZNSt10_HashtableIiSt4pairIKiiESaIS2_ENSt8__detail10_Select1stESt8equal_toIiESt4hashIiENS4_18_Mod_range_hashingENS4_20_Default_ranged_hashENS4_20_Prime_rehash_policyENS4_17_Hashtable_traitsILb0ELb0ELb1EEEE21_M_insert_unique_nodeEmmPNS4_10_Hash_nodeIS2_Lb0EEEm>
    223f:	48 89 45 d0          	mov    %rax,-0x30(%rbp)
    2243:	48 8d 45 d0          	lea    -0x30(%rbp),%rax
    2247:	48 89 c7             	mov    %rax,%rdi
    224a:	e8 b5 08 00 00       	callq  2b04 <_ZNKSt8__detail14_Node_iteratorISt4pairIKiiELb0ELb0EEptEv>
    224f:	48 83 c0 04          	add    $0x4,%rax
    2253:	eb 10                	jmp    2265 <_ZNSt8__detail9_Map_baseIiSt4pairIKiiESaIS3_ENS_10_Select1stESt8equal_toIiESt4hashIiENS_18_Mod_range_hashingENS_20_Default_ranged_hashENS_20_Prime_rehash_policyENS_17_Hashtable_traitsILb0ELb0ELb1EEELb1EEixEOi+0x101>
    2255:	48 8b 45 f0          	mov    -0x10(%rbp),%rax
    2259:	48 89 c7             	mov    %rax,%rdi
    225c:	e8 c5 08 00 00       	callq  2b26 <_ZNSt8__detail21_Hash_node_value_baseISt4pairIKiiEE4_M_vEv>
    2261:	48 83 c0 04          	add    $0x4,%rax
    2265:	48 8b 7d f8          	mov    -0x8(%rbp),%rdi
    2269:	64 48 33 3c 25 28 00 	xor    %fs:0x28,%rdi
    2270:	00 00 
    2272:	74 05                	je     2279 <_ZNSt8__detail9_Map_baseIiSt4pairIKiiESaIS3_ENS_10_Select1stESt8equal_toIiESt4hashIiENS_18_Mod_range_hashingENS_20_Default_ranged_hashENS_20_Prime_rehash_policyENS_17_Hashtable_traitsILb0ELb0ELb1EEELb1EEixEOi+0x115>
    2274:	e8 67 ef ff ff       	callq  11e0 <__stack_chk_fail@plt>
    2279:	c9                   	leaveq 
    227a:	c3                   	retq   
    227b:	90                   	nop

000000000000227c <_ZNSt8__detail9_Map_baseIiSt4pairIKiiESaIS3_ENS_10_Select1stESt8equal_toIiESt4hashIiENS_18_Mod_range_hashingENS_20_Default_ranged_hashENS_20_Prime_rehash_policyENS_17_Hashtable_traitsILb0ELb0ELb1EEELb1EEixERS2_>:
    227c:	f3 0f 1e fa          	endbr64 
    2280:	55                   	push   %rbp
    2281:	48 89 e5             	mov    %rsp,%rbp
    2284:	48 83 ec 50          	sub    $0x50,%rsp
    2288:	48 89 7d b8          	mov    %rdi,-0x48(%rbp)
    228c:	48 89 75 b0          	mov    %rsi,-0x50(%rbp)
    2290:	64 48 8b 04 25 28 00 	mov    %fs:0x28,%rax
    2297:	00 00 
    2299:	48 89 45 f8          	mov    %rax,-0x8(%rbp)
    229d:	31 c0                	xor    %eax,%eax
    229f:	48 8b 45 b8          	mov    -0x48(%rbp),%rax
    22a3:	48 89 45 d8          	mov    %rax,-0x28(%rbp)
    22a7:	48 8b 55 b0          	mov    -0x50(%rbp),%rdx
    22ab:	48 8b 45 d8          	mov    -0x28(%rbp),%rax
    22af:	48 89 d6             	mov    %rdx,%rsi
    22b2:	48 89 c7             	mov    %rax,%rdi
    22b5:	e8 12 04 00 00       	callq  26cc <_ZNKSt8__detail15_Hash_code_baseIiSt4pairIKiiENS_10_Select1stESt4hashIiENS_18_Mod_range_hashingENS_20_Default_ranged_hashELb0EE12_M_hash_codeERS2_>
    22ba:	48 89 45 e0          	mov    %rax,-0x20(%rbp)
    22be:	48 8b 55 e0          	mov    -0x20(%rbp),%rdx
    22c2:	48 8b 4d b0          	mov    -0x50(%rbp),%rcx
    22c6:	48 8b 45 d8          	mov    -0x28(%rbp),%rax
    22ca:	48 89 ce             	mov    %rcx,%rsi
    22cd:	48 89 c7             	mov    %rax,%rdi
    22d0:	e8 2d 04 00 00       	callq  2702 <_ZNKSt10_HashtableIiSt4pairIKiiESaIS2_ENSt8__detail10_Select1stESt8equal_toIiESt4hashIiENS4_18_Mod_range_hashingENS4_20_Default_ranged_hashENS4_20_Prime_rehash_policyENS4_17_Hashtable_traitsILb0ELb0ELb1EEEE15_M_bucket_indexERS1_m>
    22d5:	48 89 45 e8          	mov    %rax,-0x18(%rbp)
    22d9:	48 8b 4d e0          	mov    -0x20(%rbp),%rcx
    22dd:	48 8b 55 b0          	mov    -0x50(%rbp),%rdx
    22e1:	48 8b 75 e8          	mov    -0x18(%rbp),%rsi
    22e5:	48 8b 45 d8          	mov    -0x28(%rbp),%rax
    22e9:	48 89 c7             	mov    %rax,%rdi
    22ec:	e8 47 04 00 00       	callq  2738 <_ZNKSt10_HashtableIiSt4pairIKiiESaIS2_ENSt8__detail10_Select1stESt8equal_toIiESt4hashIiENS4_18_Mod_range_hashingENS4_20_Default_ranged_hashENS4_20_Prime_rehash_policyENS4_17_Hashtable_traitsILb0ELb0ELb1EEEE12_M_find_nodeEmRS1_m>
    22f1:	48 89 45 f0          	mov    %rax,-0x10(%rbp)
    22f5:	48 83 7d f0 00       	cmpq   $0x0,-0x10(%rbp)
    22fa:	75 66                	jne    2362 <_ZNSt8__detail9_Map_baseIiSt4pairIKiiESaIS3_ENS_10_Select1stESt8equal_toIiESt4hashIiENS_18_Mod_range_hashingENS_20_Default_ranged_hashENS_20_Prime_rehash_policyENS_17_Hashtable_traitsILb0ELb0ELb1EEELb1EEixERS2_+0xe6>
    22fc:	48 8b 55 b0          	mov    -0x50(%rbp),%rdx
    2300:	48 8d 45 d0          	lea    -0x30(%rbp),%rax
    2304:	48 89 d6             	mov    %rdx,%rsi
    2307:	48 89 c7             	mov    %rax,%rdi
    230a:	e8 35 08 00 00       	callq  2b44 <_ZNSt5tupleIJRKiEEC1IvLb1EEES1_>
    230f:	48 8d 4d cf          	lea    -0x31(%rbp),%rcx
    2313:	48 8d 55 d0          	lea    -0x30(%rbp),%rdx
    2317:	48 8b 45 d8          	mov    -0x28(%rbp),%rax
    231b:	48 8d 35 e6 3c 00 00 	lea    0x3ce6(%rip),%rsi        # 6008 <_ZStL19piecewise_construct>
    2322:	48 89 c7             	mov    %rax,%rdi
    2325:	e8 44 08 00 00       	callq  2b6e <_ZNSt8__detail16_Hashtable_allocISaINS_10_Hash_nodeISt4pairIKiiELb0EEEEE16_M_allocate_nodeIJRKSt21piecewise_construct_tSt5tupleIJRS3_EESC_IJEEEEEPS5_DpOT_>
    232a:	48 89 45 f0          	mov    %rax,-0x10(%rbp)
    232e:	48 8b 4d f0          	mov    -0x10(%rbp),%rcx
    2332:	48 8b 55 e0          	mov    -0x20(%rbp),%rdx
    2336:	48 8b 75 e8          	mov    -0x18(%rbp),%rsi
    233a:	48 8b 45 d8          	mov    -0x28(%rbp),%rax
    233e:	41 b8 01 00 00 00    	mov    $0x1,%r8d
    2344:	48 89 c7             	mov    %rax,%rdi
    2347:	e8 2c 06 00 00       	callq  2978 <_ZNSt10_HashtableIiSt4pairIKiiESaIS2_ENSt8__detail10_Select1stESt8equal_toIiESt4hashIiENS4_18_Mod_range_hashingENS4_20_Default_ranged_hashENS4_20_Prime_rehash_policyENS4_17_Hashtable_traitsILb0ELb0ELb1EEEE21_M_insert_unique_nodeEmmPNS4_10_Hash_nodeIS2_Lb0EEEm>
    234c:	48 89 45 d0          	mov    %rax,-0x30(%rbp)
    2350:	48 8d 45 d0          	lea    -0x30(%rbp),%rax
    2354:	48 89 c7             	mov    %rax,%rdi
    2357:	e8 a8 07 00 00       	callq  2b04 <_ZNKSt8__detail14_Node_iteratorISt4pairIKiiELb0ELb0EEptEv>
    235c:	48 83 c0 04          	add    $0x4,%rax
    2360:	eb 10                	jmp    2372 <_ZNSt8__detail9_Map_baseIiSt4pairIKiiESaIS3_ENS_10_Select1stESt8equal_toIiESt4hashIiENS_18_Mod_range_hashingENS_20_Default_ranged_hashENS_20_Prime_rehash_policyENS_17_Hashtable_traitsILb0ELb0ELb1EEELb1EEixERS2_+0xf6>
    2362:	48 8b 45 f0          	mov    -0x10(%rbp),%rax
    2366:	48 89 c7             	mov    %rax,%rdi
    2369:	e8 b8 07 00 00       	callq  2b26 <_ZNSt8__detail21_Hash_node_value_baseISt4pairIKiiEE4_M_vEv>
    236e:	48 83 c0 04          	add    $0x4,%rax
    2372:	48 8b 7d f8          	mov    -0x8(%rbp),%rdi
    2376:	64 48 33 3c 25 28 00 	xor    %fs:0x28,%rdi
    237d:	00 00 
    237f:	74 05                	je     2386 <_ZNSt8__detail9_Map_baseIiSt4pairIKiiESaIS3_ENS_10_Select1stESt8equal_toIiESt4hashIiENS_18_Mod_range_hashingENS_20_Default_ranged_hashENS_20_Prime_rehash_policyENS_17_Hashtable_traitsILb0ELb0ELb1EEELb1EEixERS2_+0x10a>
    2381:	e8 5a ee ff ff       	callq  11e0 <__stack_chk_fail@plt>
    2386:	c9                   	leaveq 
    2387:	c3                   	retq   

0000000000002388 <_ZNSt6vectorIiSaIiEE12emplace_backIJiEEEvDpOT_>:
    2388:	f3 0f 1e fa          	endbr64 
    238c:	55                   	push   %rbp
    238d:	48 89 e5             	mov    %rsp,%rbp
    2390:	53                   	push   %rbx
    2391:	48 83 ec 18          	sub    $0x18,%rsp
    2395:	48 89 7d e8          	mov    %rdi,-0x18(%rbp)
    2399:	48 89 75 e0          	mov    %rsi,-0x20(%rbp)
    239d:	48 8b 45 e8          	mov    -0x18(%rbp),%rax
    23a1:	48 8b 50 08          	mov    0x8(%rax),%rdx
    23a5:	48 8b 45 e8          	mov    -0x18(%rbp),%rax
    23a9:	48 8b 40 10          	mov    0x10(%rax),%rax
    23ad:	48 39 c2             	cmp    %rax,%rdx
    23b0:	74 3c                	je     23ee <_ZNSt6vectorIiSaIiEE12emplace_backIJiEEEvDpOT_+0x66>
    23b2:	48 8b 45 e0          	mov    -0x20(%rbp),%rax
    23b6:	48 89 c7             	mov    %rax,%rdi
    23b9:	e8 6d f6 ff ff       	callq  1a2b <_ZSt7forwardIiEOT_RNSt16remove_referenceIS0_E4typeE>
    23be:	48 89 c2             	mov    %rax,%rdx
    23c1:	48 8b 45 e8          	mov    -0x18(%rbp),%rax
    23c5:	48 8b 48 08          	mov    0x8(%rax),%rcx
    23c9:	48 8b 45 e8          	mov    -0x18(%rbp),%rax
    23cd:	48 89 ce             	mov    %rcx,%rsi
    23d0:	48 89 c7             	mov    %rax,%rdi
    23d3:	e8 b9 08 00 00       	callq  2c91 <_ZNSt16allocator_traitsISaIiEE9constructIiJiEEEvRS0_PT_DpOT0_>
    23d8:	48 8b 45 e8          	mov    -0x18(%rbp),%rax
    23dc:	48 8b 40 08          	mov    0x8(%rax),%rax
    23e0:	48 8d 50 04          	lea    0x4(%rax),%rdx
    23e4:	48 8b 45 e8          	mov    -0x18(%rbp),%rax
    23e8:	48 89 50 08          	mov    %rdx,0x8(%rax)
    23ec:	eb 30                	jmp    241e <_ZNSt6vectorIiSaIiEE12emplace_backIJiEEEvDpOT_+0x96>
    23ee:	48 8b 45 e0          	mov    -0x20(%rbp),%rax
    23f2:	48 89 c7             	mov    %rax,%rdi
    23f5:	e8 31 f6 ff ff       	callq  1a2b <_ZSt7forwardIiEOT_RNSt16remove_referenceIS0_E4typeE>
    23fa:	48 89 c3             	mov    %rax,%rbx
    23fd:	48 8b 45 e8          	mov    -0x18(%rbp),%rax
    2401:	48 89 c7             	mov    %rax,%rdi
    2404:	e8 01 fa ff ff       	callq  1e0a <_ZNSt6vectorIiSaIiEE3endEv>
    2409:	48 89 c1             	mov    %rax,%rcx
    240c:	48 8b 45 e8          	mov    -0x18(%rbp),%rax
    2410:	48 89 da             	mov    %rbx,%rdx
    2413:	48 89 ce             	mov    %rcx,%rsi
    2416:	48 89 c7             	mov    %rax,%rdi
    2419:	e8 f6 08 00 00       	callq  2d14 <_ZNSt6vectorIiSaIiEE17_M_realloc_insertIJiEEEvN9__gnu_cxx17__normal_iteratorIPiS1_EEDpOT_>
    241e:	90                   	nop
    241f:	48 83 c4 18          	add    $0x18,%rsp
    2423:	5b                   	pop    %rbx
    2424:	5d                   	pop    %rbp
    2425:	c3                   	retq   

0000000000002426 <_ZNSaIiEC1ERKS_>:
    2426:	f3 0f 1e fa          	endbr64 
    242a:	55                   	push   %rbp
    242b:	48 89 e5             	mov    %rsp,%rbp
    242e:	48 83 ec 10          	sub    $0x10,%rsp
    2432:	48 89 7d f8          	mov    %rdi,-0x8(%rbp)
    2436:	48 89 75 f0          	mov    %rsi,-0x10(%rbp)
    243a:	48 8b 55 f0          	mov    -0x10(%rbp),%rdx
    243e:	48 8b 45 f8          	mov    -0x8(%rbp),%rax
    2442:	48 89 d6             	mov    %rdx,%rsi
    2445:	48 89 c7             	mov    %rax,%rdi
    2448:	e8 bf 0b 00 00       	callq  300c <_ZN9__gnu_cxx13new_allocatorIiEC1ERKS1_>
    244d:	90                   	nop
    244e:	c9                   	leaveq 
    244f:	c3                   	retq   

0000000000002450 <_ZN9__gnu_cxx13new_allocatorIiEC1Ev>:
    2450:	f3 0f 1e fa          	endbr64 
    2454:	55                   	push   %rbp
    2455:	48 89 e5             	mov    %rsp,%rbp
    2458:	48 89 7d f8          	mov    %rdi,-0x8(%rbp)
    245c:	90                   	nop
    245d:	5d                   	pop    %rbp
    245e:	c3                   	retq   
    245f:	90                   	nop

0000000000002460 <_ZNSt12_Vector_baseIiSaIiEEC1ERKS0_>:
    2460:	f3 0f 1e fa          	endbr64 
    2464:	55                   	push   %rbp
    2465:	48 89 e5             	mov    %rsp,%rbp
    2468:	48 83 ec 10          	sub    $0x10,%rsp
    246c:	48 89 7d f8          	mov    %rdi,-0x8(%rbp)
    2470:	48 89 75 f0          	mov    %rsi,-0x10(%rbp)
    2474:	48 8b 45 f8          	mov    -0x8(%rbp),%rax
    2478:	48 8b 55 f0          	mov    -0x10(%rbp),%rdx
    247c:	48 89 d6             	mov    %rdx,%rsi
    247f:	48 89 c7             	mov    %rax,%rdi
    2482:	e8 99 0b 00 00       	callq  3020 <_ZNSt12_Vector_baseIiSaIiEE12_Vector_implC1ERKS0_>
    2487:	90                   	nop
    2488:	c9                   	leaveq 
    2489:	c3                   	retq   

000000000000248a <_ZNKSt16initializer_listIiE5beginEv>:
    248a:	f3 0f 1e fa          	endbr64 
    248e:	55                   	push   %rbp
    248f:	48 89 e5             	mov    %rsp,%rbp
    2492:	48 89 7d f8          	mov    %rdi,-0x8(%rbp)
    2496:	48 8b 45 f8          	mov    -0x8(%rbp),%rax
    249a:	48 8b 00             	mov    (%rax),%rax
    249d:	5d                   	pop    %rbp
    249e:	c3                   	retq   
    249f:	90                   	nop

00000000000024a0 <_ZNKSt16initializer_listIiE3endEv>:
    24a0:	f3 0f 1e fa          	endbr64 
    24a4:	55                   	push   %rbp
    24a5:	48 89 e5             	mov    %rsp,%rbp
    24a8:	53                   	push   %rbx
    24a9:	48 83 ec 18          	sub    $0x18,%rsp
    24ad:	48 89 7d e8          	mov    %rdi,-0x18(%rbp)
    24b1:	48 8b 45 e8          	mov    -0x18(%rbp),%rax
    24b5:	48 89 c7             	mov    %rax,%rdi
    24b8:	e8 cd ff ff ff       	callq  248a <_ZNKSt16initializer_listIiE5beginEv>
    24bd:	48 89 c3             	mov    %rax,%rbx
    24c0:	48 8b 45 e8          	mov    -0x18(%rbp),%rax
    24c4:	48 89 c7             	mov    %rax,%rdi
    24c7:	e8 8a 0b 00 00       	callq  3056 <_ZNKSt16initializer_listIiE4sizeEv>
    24cc:	48 c1 e0 02          	shl    $0x2,%rax
    24d0:	48 01 d8             	add    %rbx,%rax
    24d3:	48 83 c4 18          	add    $0x18,%rsp
    24d7:	5b                   	pop    %rbx
    24d8:	5d                   	pop    %rbp
    24d9:	c3                   	retq   

00000000000024da <_ZNSt6vectorIiSaIiEE19_M_range_initializeIPKiEEvT_S5_St20forward_iterator_tag>:
    24da:	f3 0f 1e fa          	endbr64 
    24de:	55                   	push   %rbp
    24df:	48 89 e5             	mov    %rsp,%rbp
    24e2:	53                   	push   %rbx
    24e3:	48 83 ec 38          	sub    $0x38,%rsp
    24e7:	48 89 7d d8          	mov    %rdi,-0x28(%rbp)
    24eb:	48 89 75 d0          	mov    %rsi,-0x30(%rbp)
    24ef:	48 89 55 c8          	mov    %rdx,-0x38(%rbp)
    24f3:	48 8b 55 c8          	mov    -0x38(%rbp),%rdx
    24f7:	48 8b 45 d0          	mov    -0x30(%rbp),%rax
    24fb:	48 89 d6             	mov    %rdx,%rsi
    24fe:	48 89 c7             	mov    %rax,%rdi
    2501:	e8 66 0b 00 00       	callq  306c <_ZSt8distanceIPKiENSt15iterator_traitsIT_E15difference_typeES3_S3_>
    2506:	48 89 45 e8          	mov    %rax,-0x18(%rbp)
    250a:	48 8b 5d d8          	mov    -0x28(%rbp),%rbx
    250e:	48 8b 45 d8          	mov    -0x28(%rbp),%rax
    2512:	48 89 c7             	mov    %rax,%rdi
    2515:	e8 f6 fa ff ff       	callq  2010 <_ZNSt12_Vector_baseIiSaIiEE19_M_get_Tp_allocatorEv>
    251a:	48 89 c2             	mov    %rax,%rdx
    251d:	48 8b 45 e8          	mov    -0x18(%rbp),%rax
    2521:	48 89 d6             	mov    %rdx,%rsi
    2524:	48 89 c7             	mov    %rax,%rdi
    2527:	e8 98 0b 00 00       	callq  30c4 <_ZNSt6vectorIiSaIiEE17_S_check_init_lenEmRKS0_>
    252c:	48 89 c6             	mov    %rax,%rsi
    252f:	48 89 df             	mov    %rbx,%rdi
    2532:	e8 13 0c 00 00       	callq  314a <_ZNSt12_Vector_baseIiSaIiEE11_M_allocateEm>
    2537:	48 8b 55 d8          	mov    -0x28(%rbp),%rdx
    253b:	48 89 02             	mov    %rax,(%rdx)
    253e:	48 8b 45 d8          	mov    -0x28(%rbp),%rax
    2542:	48 8b 00             	mov    (%rax),%rax
    2545:	48 8b 55 e8          	mov    -0x18(%rbp),%rdx
    2549:	48 c1 e2 02          	shl    $0x2,%rdx
    254d:	48 01 c2             	add    %rax,%rdx
    2550:	48 8b 45 d8          	mov    -0x28(%rbp),%rax
    2554:	48 89 50 10          	mov    %rdx,0x10(%rax)
    2558:	48 8b 45 d8          	mov    -0x28(%rbp),%rax
    255c:	48 89 c7             	mov    %rax,%rdi
    255f:	e8 ac fa ff ff       	callq  2010 <_ZNSt12_Vector_baseIiSaIiEE19_M_get_Tp_allocatorEv>
    2564:	48 89 c1             	mov    %rax,%rcx
    2567:	48 8b 45 d8          	mov    -0x28(%rbp),%rax
    256b:	48 8b 10             	mov    (%rax),%rdx
    256e:	48 8b 75 c8          	mov    -0x38(%rbp),%rsi
    2572:	48 8b 45 d0          	mov    -0x30(%rbp),%rax
    2576:	48 89 c7             	mov    %rax,%rdi
    2579:	e8 03 0c 00 00       	callq  3181 <_ZSt22__uninitialized_copy_aIPKiPiiET0_T_S4_S3_RSaIT1_E>
    257e:	48 8b 55 d8          	mov    -0x28(%rbp),%rdx
    2582:	48 89 42 08          	mov    %rax,0x8(%rdx)
    2586:	90                   	nop
    2587:	48 83 c4 38          	add    $0x38,%rsp
    258b:	5b                   	pop    %rbx
    258c:	5d                   	pop    %rbp
    258d:	c3                   	retq   

000000000000258e <_ZN9__gnu_cxx17__normal_iteratorIPiSt6vectorIiSaIiEEEC1ERKS1_>:
    258e:	f3 0f 1e fa          	endbr64 
    2592:	55                   	push   %rbp
    2593:	48 89 e5             	mov    %rsp,%rbp
    2596:	48 89 7d f8          	mov    %rdi,-0x8(%rbp)
    259a:	48 89 75 f0          	mov    %rsi,-0x10(%rbp)
    259e:	48 8b 45 f0          	mov    -0x10(%rbp),%rax
    25a2:	48 8b 10             	mov    (%rax),%rdx
    25a5:	48 8b 45 f8          	mov    -0x8(%rbp),%rax
    25a9:	48 89 10             	mov    %rdx,(%rax)
    25ac:	90                   	nop
    25ad:	5d                   	pop    %rbp
    25ae:	c3                   	retq   
    25af:	90                   	nop

00000000000025b0 <_ZNK9__gnu_cxx17__normal_iteratorIPiSt6vectorIiSaIiEEE4baseEv>:
    25b0:	f3 0f 1e fa          	endbr64 
    25b4:	55                   	push   %rbp
    25b5:	48 89 e5             	mov    %rsp,%rbp
    25b8:	48 89 7d f8          	mov    %rdi,-0x8(%rbp)
    25bc:	48 8b 45 f8          	mov    -0x8(%rbp),%rax
    25c0:	5d                   	pop    %rbp
    25c1:	c3                   	retq   

00000000000025c2 <_ZNKSt10_HashtableIiSt4pairIKiiESaIS2_ENSt8__detail10_Select1stESt8equal_toIiESt4hashIiENS4_18_Mod_range_hashingENS4_20_Default_ranged_hashENS4_20_Prime_rehash_policyENS4_17_Hashtable_traitsILb0ELb0ELb1EEEE8_M_beginEv>:
    25c2:	f3 0f 1e fa          	endbr64 
    25c6:	55                   	push   %rbp
    25c7:	48 89 e5             	mov    %rsp,%rbp
    25ca:	48 89 7d f8          	mov    %rdi,-0x8(%rbp)
    25ce:	48 8b 45 f8          	mov    -0x8(%rbp),%rax
    25d2:	48 8b 40 10          	mov    0x10(%rax),%rax
    25d6:	5d                   	pop    %rbp
    25d7:	c3                   	retq   

00000000000025d8 <_ZNSt8__detail16_Hashtable_allocISaINS_10_Hash_nodeISt4pairIKiiELb0EEEEE19_M_deallocate_nodesEPS5_>:
    25d8:	f3 0f 1e fa          	endbr64 
    25dc:	55                   	push   %rbp
    25dd:	48 89 e5             	mov    %rsp,%rbp
    25e0:	48 83 ec 20          	sub    $0x20,%rsp
    25e4:	48 89 7d e8          	mov    %rdi,-0x18(%rbp)
    25e8:	48 89 75 e0          	mov    %rsi,-0x20(%rbp)
    25ec:	48 83 7d e0 00       	cmpq   $0x0,-0x20(%rbp)
    25f1:	74 2d                	je     2620 <_ZNSt8__detail16_Hashtable_allocISaINS_10_Hash_nodeISt4pairIKiiELb0EEEEE19_M_deallocate_nodesEPS5_+0x48>
    25f3:	48 8b 45 e0          	mov    -0x20(%rbp),%rax
    25f7:	48 89 45 f8          	mov    %rax,-0x8(%rbp)
    25fb:	48 8b 45 e0          	mov    -0x20(%rbp),%rax
    25ff:	48 89 c7             	mov    %rax,%rdi
    2602:	e8 af 0b 00 00       	callq  31b6 <_ZNKSt8__detail10_Hash_nodeISt4pairIKiiELb0EE7_M_nextEv>
    2607:	48 89 45 e0          	mov    %rax,-0x20(%rbp)
    260b:	48 8b 55 f8          	mov    -0x8(%rbp),%rdx
    260f:	48 8b 45 e8          	mov    -0x18(%rbp),%rax
    2613:	48 89 d6             	mov    %rdx,%rsi
    2616:	48 89 c7             	mov    %rax,%rdi
    2619:	e8 ae 0b 00 00       	callq  31cc <_ZNSt8__detail16_Hashtable_allocISaINS_10_Hash_nodeISt4pairIKiiELb0EEEEE18_M_deallocate_nodeEPS5_>
    261e:	eb cc                	jmp    25ec <_ZNSt8__detail16_Hashtable_allocISaINS_10_Hash_nodeISt4pairIKiiELb0EEEEE19_M_deallocate_nodesEPS5_+0x14>
    2620:	90                   	nop
    2621:	c9                   	leaveq 
    2622:	c3                   	retq   
    2623:	90                   	nop

0000000000002624 <_ZNSt10_HashtableIiSt4pairIKiiESaIS2_ENSt8__detail10_Select1stESt8equal_toIiESt4hashIiENS4_18_Mod_range_hashingENS4_20_Default_ranged_hashENS4_20_Prime_rehash_policyENS4_17_Hashtable_traitsILb0ELb0ELb1EEEE21_M_deallocate_bucketsEPPNS4_15_Hash_node_baseEm>:
    2624:	f3 0f 1e fa          	endbr64 
    2628:	55                   	push   %rbp
    2629:	48 89 e5             	mov    %rsp,%rbp
    262c:	48 83 ec 20          	sub    $0x20,%rsp
    2630:	48 89 7d f8          	mov    %rdi,-0x8(%rbp)
    2634:	48 89 75 f0          	mov    %rsi,-0x10(%rbp)
    2638:	48 89 55 e8          	mov    %rdx,-0x18(%rbp)
    263c:	48 8b 55 f0          	mov    -0x10(%rbp),%rdx
    2640:	48 8b 45 f8          	mov    -0x8(%rbp),%rax
    2644:	48 89 d6             	mov    %rdx,%rsi
    2647:	48 89 c7             	mov    %rax,%rdi
    264a:	e8 d3 0b 00 00       	callq  3222 <_ZNKSt10_HashtableIiSt4pairIKiiESaIS2_ENSt8__detail10_Select1stESt8equal_toIiESt4hashIiENS4_18_Mod_range_hashingENS4_20_Default_ranged_hashENS4_20_Prime_rehash_policyENS4_17_Hashtable_traitsILb0ELb0ELb1EEEE21_M_uses_single_bucketEPPNS4_15_Hash_node_baseE>
    264f:	84 c0                	test   %al,%al
    2651:	75 19                	jne    266c <_ZNSt10_HashtableIiSt4pairIKiiESaIS2_ENSt8__detail10_Select1stESt8equal_toIiESt4hashIiENS4_18_Mod_range_hashingENS4_20_Default_ranged_hashENS4_20_Prime_rehash_policyENS4_17_Hashtable_traitsILb0ELb0ELb1EEEE21_M_deallocate_bucketsEPPNS4_15_Hash_node_baseEm+0x48>
    2653:	48 8b 55 e8          	mov    -0x18(%rbp),%rdx
    2657:	48 8b 4d f0          	mov    -0x10(%rbp),%rcx
    265b:	48 8b 45 f8          	mov    -0x8(%rbp),%rax
    265f:	48 89 ce             	mov    %rcx,%rsi
    2662:	48 89 c7             	mov    %rax,%rdi
    2665:	e8 e2 0b 00 00       	callq  324c <_ZNSt8__detail16_Hashtable_allocISaINS_10_Hash_nodeISt4pairIKiiELb0EEEEE21_M_deallocate_bucketsEPPNS_15_Hash_node_baseEm>
    266a:	eb 01                	jmp    266d <_ZNSt10_HashtableIiSt4pairIKiiESaIS2_ENSt8__detail10_Select1stESt8equal_toIiESt4hashIiENS4_18_Mod_range_hashingENS4_20_Default_ranged_hashENS4_20_Prime_rehash_policyENS4_17_Hashtable_traitsILb0ELb0ELb1EEEE21_M_deallocate_bucketsEPPNS4_15_Hash_node_baseEm+0x49>
    266c:	90                   	nop
    266d:	c9                   	leaveq 
    266e:	c3                   	retq   

000000000000266f <_ZNSt16allocator_traitsISaIiEE10deallocateERS0_Pim>:
    266f:	f3 0f 1e fa          	endbr64 
    2673:	55                   	push   %rbp
    2674:	48 89 e5             	mov    %rsp,%rbp
    2677:	48 83 ec 20          	sub    $0x20,%rsp
    267b:	48 89 7d f8          	mov    %rdi,-0x8(%rbp)
    267f:	48 89 75 f0          	mov    %rsi,-0x10(%rbp)
    2683:	48 89 55 e8          	mov    %rdx,-0x18(%rbp)
    2687:	48 8b 55 e8          	mov    -0x18(%rbp),%rdx
    268b:	48 8b 4d f0          	mov    -0x10(%rbp),%rcx
    268f:	48 8b 45 f8          	mov    -0x8(%rbp),%rax
    2693:	48 89 ce             	mov    %rcx,%rsi
    2696:	48 89 c7             	mov    %rax,%rdi
    2699:	e8 64 0c 00 00       	callq  3302 <_ZN9__gnu_cxx13new_allocatorIiE10deallocateEPim>
    269e:	90                   	nop
    269f:	c9                   	leaveq 
    26a0:	c3                   	retq   

00000000000026a1 <_ZSt8_DestroyIPiEvT_S1_>:
    26a1:	f3 0f 1e fa          	endbr64 
    26a5:	55                   	push   %rbp
    26a6:	48 89 e5             	mov    %rsp,%rbp
    26a9:	48 83 ec 10          	sub    $0x10,%rsp
    26ad:	48 89 7d f8          	mov    %rdi,-0x8(%rbp)
    26b1:	48 89 75 f0          	mov    %rsi,-0x10(%rbp)
    26b5:	48 8b 55 f0          	mov    -0x10(%rbp),%rdx
    26b9:	48 8b 45 f8          	mov    -0x8(%rbp),%rax
    26bd:	48 89 d6             	mov    %rdx,%rsi
    26c0:	48 89 c7             	mov    %rax,%rdi
    26c3:	e8 61 0c 00 00       	callq  3329 <_ZNSt12_Destroy_auxILb1EE9__destroyIPiEEvT_S3_>
    26c8:	90                   	nop
    26c9:	c9                   	leaveq 
    26ca:	c3                   	retq   
    26cb:	90                   	nop

00000000000026cc <_ZNKSt8__detail15_Hash_code_baseIiSt4pairIKiiENS_10_Select1stESt4hashIiENS_18_Mod_range_hashingENS_20_Default_ranged_hashELb0EE12_M_hash_codeERS2_>:
    26cc:	f3 0f 1e fa          	endbr64 
    26d0:	55                   	push   %rbp
    26d1:	48 89 e5             	mov    %rsp,%rbp
    26d4:	48 83 ec 10          	sub    $0x10,%rsp
    26d8:	48 89 7d f8          	mov    %rdi,-0x8(%rbp)
    26dc:	48 89 75 f0          	mov    %rsi,-0x10(%rbp)
    26e0:	48 8b 45 f8          	mov    -0x8(%rbp),%rax
    26e4:	48 89 c7             	mov    %rax,%rdi
    26e7:	e8 50 0c 00 00       	callq  333c <_ZNKSt8__detail15_Hash_code_baseIiSt4pairIKiiENS_10_Select1stESt4hashIiENS_18_Mod_range_hashingENS_20_Default_ranged_hashELb0EE5_M_h1Ev>
    26ec:	48 89 c2             	mov    %rax,%rdx
    26ef:	48 8b 45 f0          	mov    -0x10(%rbp),%rax
    26f3:	8b 00                	mov    (%rax),%eax
    26f5:	89 c6                	mov    %eax,%esi
    26f7:	48 89 d7             	mov    %rdx,%rdi
    26fa:	e8 bb ee ff ff       	callq  15ba <_ZNKSt4hashIiEclEi>
    26ff:	c9                   	leaveq 
    2700:	c3                   	retq   
    2701:	90                   	nop

0000000000002702 <_ZNKSt10_HashtableIiSt4pairIKiiESaIS2_ENSt8__detail10_Select1stESt8equal_toIiESt4hashIiENS4_18_Mod_range_hashingENS4_20_Default_ranged_hashENS4_20_Prime_rehash_policyENS4_17_Hashtable_traitsILb0ELb0ELb1EEEE15_M_bucket_indexERS1_m>:
    2702:	f3 0f 1e fa          	endbr64 
    2706:	55                   	push   %rbp
    2707:	48 89 e5             	mov    %rsp,%rbp
    270a:	48 83 ec 20          	sub    $0x20,%rsp
    270e:	48 89 7d f8          	mov    %rdi,-0x8(%rbp)
    2712:	48 89 75 f0          	mov    %rsi,-0x10(%rbp)
    2716:	48 89 55 e8          	mov    %rdx,-0x18(%rbp)
    271a:	48 8b 45 f8          	mov    -0x8(%rbp),%rax
    271e:	48 8b 48 08          	mov    0x8(%rax),%rcx
    2722:	48 8b 55 e8          	mov    -0x18(%rbp),%rdx
    2726:	48 8b 75 f0          	mov    -0x10(%rbp),%rsi
    272a:	48 8b 45 f8          	mov    -0x8(%rbp),%rax
    272e:	48 89 c7             	mov    %rax,%rdi
    2731:	e8 24 0c 00 00       	callq  335a <_ZNKSt8__detail15_Hash_code_baseIiSt4pairIKiiENS_10_Select1stESt4hashIiENS_18_Mod_range_hashingENS_20_Default_ranged_hashELb0EE15_M_bucket_indexERS2_mm>
    2736:	c9                   	leaveq 
    2737:	c3                   	retq   

0000000000002738 <_ZNKSt10_HashtableIiSt4pairIKiiESaIS2_ENSt8__detail10_Select1stESt8equal_toIiESt4hashIiENS4_18_Mod_range_hashingENS4_20_Default_ranged_hashENS4_20_Prime_rehash_policyENS4_17_Hashtable_traitsILb0ELb0ELb1EEEE12_M_find_nodeEmRS1_m>:
    2738:	f3 0f 1e fa          	endbr64 
    273c:	55                   	push   %rbp
    273d:	48 89 e5             	mov    %rsp,%rbp
    2740:	48 83 ec 30          	sub    $0x30,%rsp
    2744:	48 89 7d e8          	mov    %rdi,-0x18(%rbp)
    2748:	48 89 75 e0          	mov    %rsi,-0x20(%rbp)
    274c:	48 89 55 d8          	mov    %rdx,-0x28(%rbp)
    2750:	48 89 4d d0          	mov    %rcx,-0x30(%rbp)
    2754:	48 8b 4d d0          	mov    -0x30(%rbp),%rcx
    2758:	48 8b 55 d8          	mov    -0x28(%rbp),%rdx
    275c:	48 8b 75 e0          	mov    -0x20(%rbp),%rsi
    2760:	48 8b 45 e8          	mov    -0x18(%rbp),%rax
    2764:	48 89 c7             	mov    %rax,%rdi
    2767:	e8 2e 0c 00 00       	callq  339a <_ZNKSt10_HashtableIiSt4pairIKiiESaIS2_ENSt8__detail10_Select1stESt8equal_toIiESt4hashIiENS4_18_Mod_range_hashingENS4_20_Default_ranged_hashENS4_20_Prime_rehash_policyENS4_17_Hashtable_traitsILb0ELb0ELb1EEEE19_M_find_before_nodeEmRS1_m>
    276c:	48 89 45 f8          	mov    %rax,-0x8(%rbp)
    2770:	48 83 7d f8 00       	cmpq   $0x0,-0x8(%rbp)
    2775:	74 09                	je     2780 <_ZNKSt10_HashtableIiSt4pairIKiiESaIS2_ENSt8__detail10_Select1stESt8equal_toIiESt4hashIiENS4_18_Mod_range_hashingENS4_20_Default_ranged_hashENS4_20_Prime_rehash_policyENS4_17_Hashtable_traitsILb0ELb0ELb1EEEE12_M_find_nodeEmRS1_m+0x48>
    2777:	48 8b 45 f8          	mov    -0x8(%rbp),%rax
    277b:	48 8b 00             	mov    (%rax),%rax
    277e:	eb 05                	jmp    2785 <_ZNKSt10_HashtableIiSt4pairIKiiESaIS2_ENSt8__detail10_Select1stESt8equal_toIiESt4hashIiENS4_18_Mod_range_hashingENS4_20_Default_ranged_hashENS4_20_Prime_rehash_policyENS4_17_Hashtable_traitsILb0ELb0ELb1EEEE12_M_find_nodeEmRS1_m+0x4d>
    2780:	b8 00 00 00 00       	mov    $0x0,%eax
    2785:	c9                   	leaveq 
    2786:	c3                   	retq   
    2787:	90                   	nop

0000000000002788 <_ZNSt8__detail14_Node_iteratorISt4pairIKiiELb0ELb0EEC1EPNS_10_Hash_nodeIS3_Lb0EEE>:
    2788:	f3 0f 1e fa          	endbr64 
    278c:	55                   	push   %rbp
    278d:	48 89 e5             	mov    %rsp,%rbp
    2790:	48 83 ec 10          	sub    $0x10,%rsp
    2794:	48 89 7d f8          	mov    %rdi,-0x8(%rbp)
    2798:	48 89 75 f0          	mov    %rsi,-0x10(%rbp)
    279c:	48 8b 45 f8          	mov    -0x8(%rbp),%rax
    27a0:	48 8b 55 f0          	mov    -0x10(%rbp),%rdx
    27a4:	48 89 d6             	mov    %rdx,%rsi
    27a7:	48 89 c7             	mov    %rax,%rdi
    27aa:	e8 c1 0c 00 00       	callq  3470 <_ZNSt8__detail19_Node_iterator_baseISt4pairIKiiELb0EEC1EPNS_10_Hash_nodeIS3_Lb0EEE>
    27af:	90                   	nop
    27b0:	c9                   	leaveq 
    27b1:	c3                   	retq   

00000000000027b2 <_ZNSt5tupleIJOiEEC1EOS1_>:
    27b2:	f3 0f 1e fa          	endbr64 
    27b6:	55                   	push   %rbp
    27b7:	48 89 e5             	mov    %rsp,%rbp
    27ba:	48 83 ec 10          	sub    $0x10,%rsp
    27be:	48 89 7d f8          	mov    %rdi,-0x8(%rbp)
    27c2:	48 89 75 f0          	mov    %rsi,-0x10(%rbp)
    27c6:	48 8b 45 f8          	mov    -0x8(%rbp),%rax
    27ca:	48 8b 55 f0          	mov    -0x10(%rbp),%rdx
    27ce:	48 89 d6             	mov    %rdx,%rsi
    27d1:	48 89 c7             	mov    %rax,%rdi
    27d4:	e8 ed 0c 00 00       	callq  34c6 <_ZNSt11_Tuple_implILm0EJOiEEC1EOS1_>
    27d9:	90                   	nop
    27da:	c9                   	leaveq 
    27db:	c3                   	retq   

00000000000027dc <_ZSt16forward_as_tupleIJiEESt5tupleIJDpOT_EES3_>:
    27dc:	f3 0f 1e fa          	endbr64 
    27e0:	55                   	push   %rbp
    27e1:	48 89 e5             	mov    %rsp,%rbp
    27e4:	48 83 ec 10          	sub    $0x10,%rsp
    27e8:	48 89 7d f8          	mov    %rdi,-0x8(%rbp)
    27ec:	48 89 75 f0          	mov    %rsi,-0x10(%rbp)
    27f0:	48 8b 45 f0          	mov    -0x10(%rbp),%rax
    27f4:	48 89 c7             	mov    %rax,%rdi
    27f7:	e8 2f f2 ff ff       	callq  1a2b <_ZSt7forwardIiEOT_RNSt16remove_referenceIS0_E4typeE>
    27fc:	48 89 c2             	mov    %rax,%rdx
    27ff:	48 8b 45 f8          	mov    -0x8(%rbp),%rax
    2803:	48 89 d6             	mov    %rdx,%rsi
    2806:	48 89 c7             	mov    %rax,%rdi
    2809:	e8 80 0c 00 00       	callq  348e <_ZNSt5tupleIJOiEEC1IJiELb1EEEDpOT_>
    280e:	48 8b 45 f8          	mov    -0x8(%rbp),%rax
    2812:	c9                   	leaveq 
    2813:	c3                   	retq   

0000000000002814 <_ZNSt8__detail21_Hash_node_value_baseISt4pairIKiiEEC1Ev>:
    2814:	f3 0f 1e fa          	endbr64 
    2818:	55                   	push   %rbp
    2819:	48 89 e5             	mov    %rsp,%rbp
    281c:	48 83 ec 10          	sub    $0x10,%rsp
    2820:	48 89 7d f8          	mov    %rdi,-0x8(%rbp)
    2824:	48 8b 45 f8          	mov    -0x8(%rbp),%rax
    2828:	48 89 c7             	mov    %rax,%rdi
    282b:	e8 a0 ed ff ff       	callq  15d0 <_ZNSt8__detail15_Hash_node_baseC1Ev>
    2830:	90                   	nop
    2831:	c9                   	leaveq 
    2832:	c3                   	retq   
    2833:	90                   	nop

0000000000002834 <_ZNSt8__detail10_Hash_nodeISt4pairIKiiELb0EEC1Ev>:
    2834:	f3 0f 1e fa          	endbr64 
    2838:	55                   	push   %rbp
    2839:	48 89 e5             	mov    %rsp,%rbp
    283c:	48 83 ec 10          	sub    $0x10,%rsp
    2840:	48 89 7d f8          	mov    %rdi,-0x8(%rbp)
    2844:	48 8b 45 f8          	mov    -0x8(%rbp),%rax
    2848:	48 89 c7             	mov    %rax,%rdi
    284b:	e8 c4 ff ff ff       	callq  2814 <_ZNSt8__detail21_Hash_node_value_baseISt4pairIKiiEEC1Ev>
    2850:	90                   	nop
    2851:	c9                   	leaveq 
    2852:	c3                   	retq   
    2853:	90                   	nop

0000000000002854 <_ZNSt8__detail16_Hashtable_allocISaINS_10_Hash_nodeISt4pairIKiiELb0EEEEE16_M_allocate_nodeIJRKSt21piecewise_construct_tSt5tupleIJOiEESC_IJEEEEEPS5_DpOT_>:
    2854:	f3 0f 1e fa          	endbr64 
    2858:	55                   	push   %rbp
    2859:	48 89 e5             	mov    %rsp,%rbp
    285c:	41 56                	push   %r14
    285e:	41 55                	push   %r13
    2860:	41 54                	push   %r12
    2862:	53                   	push   %rbx
    2863:	48 83 ec 30          	sub    $0x30,%rsp
    2867:	48 89 7d c8          	mov    %rdi,-0x38(%rbp)
    286b:	48 89 75 c0          	mov    %rsi,-0x40(%rbp)
    286f:	48 89 55 b8          	mov    %rdx,-0x48(%rbp)
    2873:	48 89 4d b0          	mov    %rcx,-0x50(%rbp)
    2877:	48 8b 45 c8          	mov    -0x38(%rbp),%rax
    287b:	48 89 c7             	mov    %rax,%rdi
    287e:	e8 83 0c 00 00       	callq  3506 <_ZNSt8__detail16_Hashtable_allocISaINS_10_Hash_nodeISt4pairIKiiELb0EEEEE17_M_node_allocatorEv>
    2883:	be 01 00 00 00       	mov    $0x1,%esi
    2888:	48 89 c7             	mov    %rax,%rdi
    288b:	e8 94 0c 00 00       	callq  3524 <_ZNSt16allocator_traitsISaINSt8__detail10_Hash_nodeISt4pairIKiiELb0EEEEE8allocateERS6_m>
    2890:	48 89 45 d0          	mov    %rax,-0x30(%rbp)
    2894:	48 8b 45 d0          	mov    -0x30(%rbp),%rax
    2898:	48 89 c7             	mov    %rax,%rdi
    289b:	e8 b2 0c 00 00       	callq  3552 <_ZSt12__to_addressINSt8__detail10_Hash_nodeISt4pairIKiiELb0EEEEPT_S7_>
    28a0:	48 89 45 d8          	mov    %rax,-0x28(%rbp)
    28a4:	48 8b 45 d8          	mov    -0x28(%rbp),%rax
    28a8:	48 89 c6             	mov    %rax,%rsi
    28ab:	bf 10 00 00 00       	mov    $0x10,%edi
    28b0:	e8 db ec ff ff       	callq  1590 <_ZnwmPv>
    28b5:	48 89 c7             	mov    %rax,%rdi
    28b8:	e8 77 ff ff ff       	callq  2834 <_ZNSt8__detail10_Hash_nodeISt4pairIKiiELb0EEC1Ev>
    28bd:	48 8b 45 b0          	mov    -0x50(%rbp),%rax
    28c1:	48 89 c7             	mov    %rax,%rdi
    28c4:	e8 e1 0c 00 00       	callq  35aa <_ZSt7forwardISt5tupleIJEEEOT_RNSt16remove_referenceIS2_E4typeE>
    28c9:	49 89 c6             	mov    %rax,%r14
    28cc:	48 8b 45 b8          	mov    -0x48(%rbp),%rax
    28d0:	48 89 c7             	mov    %rax,%rdi
    28d3:	e8 c0 0c 00 00       	callq  3598 <_ZSt7forwardISt5tupleIJOiEEEOT_RNSt16remove_referenceIS3_E4typeE>
    28d8:	49 89 c5             	mov    %rax,%r13
    28db:	48 8b 45 c0          	mov    -0x40(%rbp),%rax
    28df:	48 89 c7             	mov    %rax,%rdi
    28e2:	e8 9f 0c 00 00       	callq  3586 <_ZSt7forwardIRKSt21piecewise_construct_tEOT_RNSt16remove_referenceIS3_E4typeE>
    28e7:	49 89 c4             	mov    %rax,%r12
    28ea:	48 8b 45 d8          	mov    -0x28(%rbp),%rax
    28ee:	48 89 c7             	mov    %rax,%rdi
    28f1:	e8 6e 0c 00 00       	callq  3564 <_ZNSt8__detail21_Hash_node_value_baseISt4pairIKiiEE9_M_valptrEv>
    28f6:	48 89 c3             	mov    %rax,%rbx
    28f9:	48 8b 45 c8          	mov    -0x38(%rbp),%rax
    28fd:	48 89 c7             	mov    %rax,%rdi
    2900:	e8 01 0c 00 00       	callq  3506 <_ZNSt8__detail16_Hashtable_allocISaINS_10_Hash_nodeISt4pairIKiiELb0EEEEE17_M_node_allocatorEv>
    2905:	4d 89 f0             	mov    %r14,%r8
    2908:	4c 89 e9             	mov    %r13,%rcx
    290b:	4c 89 e2             	mov    %r12,%rdx
    290e:	48 89 de             	mov    %rbx,%rsi
    2911:	48 89 c7             	mov    %rax,%rdi
    2914:	e8 a3 0c 00 00       	callq  35bc <_ZNSt16allocator_traitsISaINSt8__detail10_Hash_nodeISt4pairIKiiELb0EEEEE9constructIS4_JRKSt21piecewise_construct_tSt5tupleIJOiEESC_IJEEEEEvRS6_PT_DpOT0_>
    2919:	48 8b 45 d8          	mov    -0x28(%rbp),%rax
    291d:	eb 4b                	jmp    296a <_ZNSt8__detail16_Hashtable_allocISaINS_10_Hash_nodeISt4pairIKiiELb0EEEEE16_M_allocate_nodeIJRKSt21piecewise_construct_tSt5tupleIJOiEESC_IJEEEEEPS5_DpOT_+0x116>
    291f:	f3 0f 1e fa          	endbr64 
    2923:	48 89 c7             	mov    %rax,%rdi
    2926:	e8 35 e8 ff ff       	callq  1160 <__cxa_begin_catch@plt>
    292b:	48 8b 45 c8          	mov    -0x38(%rbp),%rax
    292f:	48 89 c7             	mov    %rax,%rdi
    2932:	e8 cf 0b 00 00       	callq  3506 <_ZNSt8__detail16_Hashtable_allocISaINS_10_Hash_nodeISt4pairIKiiELb0EEEEE17_M_node_allocatorEv>
    2937:	48 89 c1             	mov    %rax,%rcx
    293a:	48 8b 45 d0          	mov    -0x30(%rbp),%rax
    293e:	ba 01 00 00 00       	mov    $0x1,%edx
    2943:	48 89 c6             	mov    %rax,%rsi
    2946:	48 89 cf             	mov    %rcx,%rdi
    2949:	e8 de 0c 00 00       	callq  362c <_ZNSt16allocator_traitsISaINSt8__detail10_Hash_nodeISt4pairIKiiELb0EEEEE10deallocateERS6_PS5_m>
    294e:	e8 ad e8 ff ff       	callq  1200 <__cxa_rethrow@plt>
    2953:	f3 0f 1e fa          	endbr64 
    2957:	48 89 c3             	mov    %rax,%rbx
    295a:	e8 d1 e8 ff ff       	callq  1230 <__cxa_end_catch@plt>
    295f:	48 89 d8             	mov    %rbx,%rax
    2962:	48 89 c7             	mov    %rax,%rdi
    2965:	e8 e6 e8 ff ff       	callq  1250 <_Unwind_Resume@plt>
    296a:	48 83 c4 30          	add    $0x30,%rsp
    296e:	5b                   	pop    %rbx
    296f:	41 5c                	pop    %r12
    2971:	41 5d                	pop    %r13
    2973:	41 5e                	pop    %r14
    2975:	5d                   	pop    %rbp
    2976:	c3                   	retq   
    2977:	90                   	nop

0000000000002978 <_ZNSt10_HashtableIiSt4pairIKiiESaIS2_ENSt8__detail10_Select1stESt8equal_toIiESt4hashIiENS4_18_Mod_range_hashingENS4_20_Default_ranged_hashENS4_20_Prime_rehash_policyENS4_17_Hashtable_traitsILb0ELb0ELb1EEEE21_M_insert_unique_nodeEmmPNS4_10_Hash_nodeIS2_Lb0EEEm>:
    2978:	f3 0f 1e fa          	endbr64 
    297c:	55                   	push   %rbp
    297d:	48 89 e5             	mov    %rsp,%rbp
    2980:	53                   	push   %rbx
    2981:	48 83 ec 78          	sub    $0x78,%rsp
    2985:	48 89 7d a8          	mov    %rdi,-0x58(%rbp)
    2989:	48 89 75 a0          	mov    %rsi,-0x60(%rbp)
    298d:	48 89 55 98          	mov    %rdx,-0x68(%rbp)
    2991:	48 89 4d 90          	mov    %rcx,-0x70(%rbp)
    2995:	4c 89 45 88          	mov    %r8,-0x78(%rbp)
    2999:	64 48 8b 04 25 28 00 	mov    %fs:0x28,%rax
    29a0:	00 00 
    29a2:	48 89 45 e8          	mov    %rax,-0x18(%rbp)
    29a6:	31 c0                	xor    %eax,%eax
    29a8:	48 8b 45 a8          	mov    -0x58(%rbp),%rax
    29ac:	48 83 c0 20          	add    $0x20,%rax
    29b0:	48 89 c7             	mov    %rax,%rdi
    29b3:	e8 86 ec ff ff       	callq  163e <_ZNKSt8__detail20_Prime_rehash_policy8_M_stateEv>
    29b8:	48 89 45 c0          	mov    %rax,-0x40(%rbp)
    29bc:	48 8d 45 c0          	lea    -0x40(%rbp),%rax
    29c0:	48 89 45 c8          	mov    %rax,-0x38(%rbp)
    29c4:	48 8b 45 a8          	mov    -0x58(%rbp),%rax
    29c8:	48 8d 78 20          	lea    0x20(%rax),%rdi
    29cc:	48 8b 45 a8          	mov    -0x58(%rbp),%rax
    29d0:	48 8b 50 18          	mov    0x18(%rax),%rdx
    29d4:	48 8b 45 a8          	mov    -0x58(%rbp),%rax
    29d8:	48 8b 40 08          	mov    0x8(%rax),%rax
    29dc:	48 8b 4d 88          	mov    -0x78(%rbp),%rcx
    29e0:	48 89 c6             	mov    %rax,%rsi
    29e3:	e8 08 e8 ff ff       	callq  11f0 <_ZNKSt8__detail20_Prime_rehash_policy14_M_need_rehashEmmm@plt>
    29e8:	89 c1                	mov    %eax,%ecx
    29ea:	48 89 d0             	mov    %rdx,%rax
    29ed:	89 4d d0             	mov    %ecx,-0x30(%rbp)
    29f0:	48 89 45 d8          	mov    %rax,-0x28(%rbp)
    29f4:	0f b6 45 d0          	movzbl -0x30(%rbp),%eax
    29f8:	84 c0                	test   %al,%al
    29fa:	74 57                	je     2a53 <_ZNSt10_HashtableIiSt4pairIKiiESaIS2_ENSt8__detail10_Select1stESt8equal_toIiESt4hashIiENS4_18_Mod_range_hashingENS4_20_Default_ranged_hashENS4_20_Prime_rehash_policyENS4_17_Hashtable_traitsILb0ELb0ELb1EEEE21_M_insert_unique_nodeEmmPNS4_10_Hash_nodeIS2_Lb0EEEm+0xdb>
    29fc:	48 8b 4d d8          	mov    -0x28(%rbp),%rcx
    2a00:	48 8b 55 c8          	mov    -0x38(%rbp),%rdx
    2a04:	48 8b 45 a8          	mov    -0x58(%rbp),%rax
    2a08:	48 89 ce             	mov    %rcx,%rsi
    2a0b:	48 89 c7             	mov    %rax,%rdi
    2a0e:	e8 4b 0c 00 00       	callq  365e <_ZNSt10_HashtableIiSt4pairIKiiESaIS2_ENSt8__detail10_Select1stESt8equal_toIiESt4hashIiENS4_18_Mod_range_hashingENS4_20_Default_ranged_hashENS4_20_Prime_rehash_policyENS4_17_Hashtable_traitsILb0ELb0ELb1EEEE9_M_rehashEmRKm>
    2a13:	48 8b 45 a8          	mov    -0x58(%rbp),%rax
    2a17:	48 89 c7             	mov    %rax,%rdi
    2a1a:	e8 d9 0c 00 00       	callq  36f8 <_ZNSt8__detail15_Hash_code_baseIiSt4pairIKiiENS_10_Select1stESt4hashIiENS_18_Mod_range_hashingENS_20_Default_ranged_hashELb0EE10_M_extractEv>
    2a1f:	48 89 c3             	mov    %rax,%rbx
    2a22:	48 8b 45 90          	mov    -0x70(%rbp),%rax
    2a26:	48 89 c7             	mov    %rax,%rdi
    2a29:	e8 f8 00 00 00       	callq  2b26 <_ZNSt8__detail21_Hash_node_value_baseISt4pairIKiiEE4_M_vEv>
    2a2e:	48 89 c6             	mov    %rax,%rsi
    2a31:	48 89 df             	mov    %rbx,%rdi
    2a34:	e8 dd 0c 00 00       	callq  3716 <_ZNKSt8__detail10_Select1stclIRSt4pairIKiiEEEDTcl3getILi0EEcl7forwardIT_Efp_EEEOS6_>
    2a39:	48 89 c1             	mov    %rax,%rcx
    2a3c:	48 8b 55 98          	mov    -0x68(%rbp),%rdx
    2a40:	48 8b 45 a8          	mov    -0x58(%rbp),%rax
    2a44:	48 89 ce             	mov    %rcx,%rsi
    2a47:	48 89 c7             	mov    %rax,%rdi
    2a4a:	e8 b3 fc ff ff       	callq  2702 <_ZNKSt10_HashtableIiSt4pairIKiiESaIS2_ENSt8__detail10_Select1stESt8equal_toIiESt4hashIiENS4_18_Mod_range_hashingENS4_20_Default_ranged_hashENS4_20_Prime_rehash_policyENS4_17_Hashtable_traitsILb0ELb0ELb1EEEE15_M_bucket_indexERS1_m>
    2a4f:	48 89 45 a0          	mov    %rax,-0x60(%rbp)
    2a53:	48 8b 55 98          	mov    -0x68(%rbp),%rdx
    2a57:	48 8b 4d 90          	mov    -0x70(%rbp),%rcx
    2a5b:	48 8b 45 a8          	mov    -0x58(%rbp),%rax
    2a5f:	48 89 ce             	mov    %rcx,%rsi
    2a62:	48 89 c7             	mov    %rax,%rdi
    2a65:	e8 d6 0c 00 00       	callq  3740 <_ZNKSt8__detail15_Hash_code_baseIiSt4pairIKiiENS_10_Select1stESt4hashIiENS_18_Mod_range_hashingENS_20_Default_ranged_hashELb0EE13_M_store_codeEPNS_10_Hash_nodeIS3_Lb0EEEm>
    2a6a:	48 8b 55 90          	mov    -0x70(%rbp),%rdx
    2a6e:	48 8b 4d a0          	mov    -0x60(%rbp),%rcx
    2a72:	48 8b 45 a8          	mov    -0x58(%rbp),%rax
    2a76:	48 89 ce             	mov    %rcx,%rsi
    2a79:	48 89 c7             	mov    %rax,%rdi
    2a7c:	e8 d7 0c 00 00       	callq  3758 <_ZNSt10_HashtableIiSt4pairIKiiESaIS2_ENSt8__detail10_Select1stESt8equal_toIiESt4hashIiENS4_18_Mod_range_hashingENS4_20_Default_ranged_hashENS4_20_Prime_rehash_policyENS4_17_Hashtable_traitsILb0ELb0ELb1EEEE22_M_insert_bucket_beginEmPNS4_10_Hash_nodeIS2_Lb0EEE>
    2a81:	48 8b 45 a8          	mov    -0x58(%rbp),%rax
    2a85:	48 8b 40 18          	mov    0x18(%rax),%rax
    2a89:	48 8d 50 01          	lea    0x1(%rax),%rdx
    2a8d:	48 8b 45 a8          	mov    -0x58(%rbp),%rax
    2a91:	48 89 50 18          	mov    %rdx,0x18(%rax)
    2a95:	48 8b 55 90          	mov    -0x70(%rbp),%rdx
    2a99:	48 8d 45 b8          	lea    -0x48(%rbp),%rax
    2a9d:	48 89 d6             	mov    %rdx,%rsi
    2aa0:	48 89 c7             	mov    %rax,%rdi
    2aa3:	e8 e0 fc ff ff       	callq  2788 <_ZNSt8__detail14_Node_iteratorISt4pairIKiiELb0ELb0EEC1EPNS_10_Hash_nodeIS3_Lb0EEE>
    2aa8:	48 8b 45 b8          	mov    -0x48(%rbp),%rax
    2aac:	48 8b 5d e8          	mov    -0x18(%rbp),%rbx
    2ab0:	64 48 33 1c 25 28 00 	xor    %fs:0x28,%rbx
    2ab7:	00 00 
    2ab9:	74 42                	je     2afd <_ZNSt10_HashtableIiSt4pairIKiiESaIS2_ENSt8__detail10_Select1stESt8equal_toIiESt4hashIiENS4_18_Mod_range_hashingENS4_20_Default_ranged_hashENS4_20_Prime_rehash_policyENS4_17_Hashtable_traitsILb0ELb0ELb1EEEE21_M_insert_unique_nodeEmmPNS4_10_Hash_nodeIS2_Lb0EEEm+0x185>
    2abb:	eb 3b                	jmp    2af8 <_ZNSt10_HashtableIiSt4pairIKiiESaIS2_ENSt8__detail10_Select1stESt8equal_toIiESt4hashIiENS4_18_Mod_range_hashingENS4_20_Default_ranged_hashENS4_20_Prime_rehash_policyENS4_17_Hashtable_traitsILb0ELb0ELb1EEEE21_M_insert_unique_nodeEmmPNS4_10_Hash_nodeIS2_Lb0EEEm+0x180>
    2abd:	f3 0f 1e fa          	endbr64 
    2ac1:	48 89 c7             	mov    %rax,%rdi
    2ac4:	e8 97 e6 ff ff       	callq  1160 <__cxa_begin_catch@plt>
    2ac9:	48 8b 55 90          	mov    -0x70(%rbp),%rdx
    2acd:	48 8b 45 a8          	mov    -0x58(%rbp),%rax
    2ad1:	48 89 d6             	mov    %rdx,%rsi
    2ad4:	48 89 c7             	mov    %rax,%rdi
    2ad7:	e8 f0 06 00 00       	callq  31cc <_ZNSt8__detail16_Hashtable_allocISaINS_10_Hash_nodeISt4pairIKiiELb0EEEEE18_M_deallocate_nodeEPS5_>
    2adc:	e8 1f e7 ff ff       	callq  1200 <__cxa_rethrow@plt>
    2ae1:	f3 0f 1e fa          	endbr64 
    2ae5:	48 89 c3             	mov    %rax,%rbx
    2ae8:	e8 43 e7 ff ff       	callq  1230 <__cxa_end_catch@plt>
    2aed:	48 89 d8             	mov    %rbx,%rax
    2af0:	48 89 c7             	mov    %rax,%rdi
    2af3:	e8 58 e7 ff ff       	callq  1250 <_Unwind_Resume@plt>
    2af8:	e8 e3 e6 ff ff       	callq  11e0 <__stack_chk_fail@plt>
    2afd:	48 83 c4 78          	add    $0x78,%rsp
    2b01:	5b                   	pop    %rbx
    2b02:	5d                   	pop    %rbp
    2b03:	c3                   	retq   

0000000000002b04 <_ZNKSt8__detail14_Node_iteratorISt4pairIKiiELb0ELb0EEptEv>:
    2b04:	f3 0f 1e fa          	endbr64 
    2b08:	55                   	push   %rbp
    2b09:	48 89 e5             	mov    %rsp,%rbp
    2b0c:	48 83 ec 10          	sub    $0x10,%rsp
    2b10:	48 89 7d f8          	mov    %rdi,-0x8(%rbp)
    2b14:	48 8b 45 f8          	mov    -0x8(%rbp),%rax
    2b18:	48 8b 00             	mov    (%rax),%rax
    2b1b:	48 89 c7             	mov    %rax,%rdi
    2b1e:	e8 41 0a 00 00       	callq  3564 <_ZNSt8__detail21_Hash_node_value_baseISt4pairIKiiEE9_M_valptrEv>
    2b23:	c9                   	leaveq 
    2b24:	c3                   	retq   
    2b25:	90                   	nop

0000000000002b26 <_ZNSt8__detail21_Hash_node_value_baseISt4pairIKiiEE4_M_vEv>:
    2b26:	f3 0f 1e fa          	endbr64 
    2b2a:	55                   	push   %rbp
    2b2b:	48 89 e5             	mov    %rsp,%rbp
    2b2e:	48 83 ec 10          	sub    $0x10,%rsp
    2b32:	48 89 7d f8          	mov    %rdi,-0x8(%rbp)
    2b36:	48 8b 45 f8          	mov    -0x8(%rbp),%rax
    2b3a:	48 89 c7             	mov    %rax,%rdi
    2b3d:	e8 22 0a 00 00       	callq  3564 <_ZNSt8__detail21_Hash_node_value_baseISt4pairIKiiEE9_M_valptrEv>
    2b42:	c9                   	leaveq 
    2b43:	c3                   	retq   

0000000000002b44 <_ZNSt5tupleIJRKiEEC1IvLb1EEES1_>:
    2b44:	f3 0f 1e fa          	endbr64 
    2b48:	55                   	push   %rbp
    2b49:	48 89 e5             	mov    %rsp,%rbp
    2b4c:	48 83 ec 10          	sub    $0x10,%rsp
    2b50:	48 89 7d f8          	mov    %rdi,-0x8(%rbp)
    2b54:	48 89 75 f0          	mov    %rsi,-0x10(%rbp)
    2b58:	48 8b 45 f8          	mov    -0x8(%rbp),%rax
    2b5c:	48 8b 55 f0          	mov    -0x10(%rbp),%rdx
    2b60:	48 89 d6             	mov    %rdx,%rsi
    2b63:	48 89 c7             	mov    %rax,%rdi
    2b66:	e8 dd 0c 00 00       	callq  3848 <_ZNSt11_Tuple_implILm0EJRKiEEC1ES1_>
    2b6b:	90                   	nop
    2b6c:	c9                   	leaveq 
    2b6d:	c3                   	retq   

0000000000002b6e <_ZNSt8__detail16_Hashtable_allocISaINS_10_Hash_nodeISt4pairIKiiELb0EEEEE16_M_allocate_nodeIJRKSt21piecewise_construct_tSt5tupleIJRS3_EESC_IJEEEEEPS5_DpOT_>:
    2b6e:	f3 0f 1e fa          	endbr64 
    2b72:	55                   	push   %rbp
    2b73:	48 89 e5             	mov    %rsp,%rbp
    2b76:	41 56                	push   %r14
    2b78:	41 55                	push   %r13
    2b7a:	41 54                	push   %r12
    2b7c:	53                   	push   %rbx
    2b7d:	48 83 ec 30          	sub    $0x30,%rsp
    2b81:	48 89 7d c8          	mov    %rdi,-0x38(%rbp)
    2b85:	48 89 75 c0          	mov    %rsi,-0x40(%rbp)
    2b89:	48 89 55 b8          	mov    %rdx,-0x48(%rbp)
    2b8d:	48 89 4d b0          	mov    %rcx,-0x50(%rbp)
    2b91:	48 8b 45 c8          	mov    -0x38(%rbp),%rax
    2b95:	48 89 c7             	mov    %rax,%rdi
    2b98:	e8 69 09 00 00       	callq  3506 <_ZNSt8__detail16_Hashtable_allocISaINS_10_Hash_nodeISt4pairIKiiELb0EEEEE17_M_node_allocatorEv>
    2b9d:	be 01 00 00 00       	mov    $0x1,%esi
    2ba2:	48 89 c7             	mov    %rax,%rdi
    2ba5:	e8 7a 09 00 00       	callq  3524 <_ZNSt16allocator_traitsISaINSt8__detail10_Hash_nodeISt4pairIKiiELb0EEEEE8allocateERS6_m>
    2baa:	48 89 45 d0          	mov    %rax,-0x30(%rbp)
    2bae:	48 8b 45 d0          	mov    -0x30(%rbp),%rax
    2bb2:	48 89 c7             	mov    %rax,%rdi
    2bb5:	e8 98 09 00 00       	callq  3552 <_ZSt12__to_addressINSt8__detail10_Hash_nodeISt4pairIKiiELb0EEEEPT_S7_>
    2bba:	48 89 45 d8          	mov    %rax,-0x28(%rbp)
    2bbe:	48 8b 45 d8          	mov    -0x28(%rbp),%rax
    2bc2:	48 89 c6             	mov    %rax,%rsi
    2bc5:	bf 10 00 00 00       	mov    $0x10,%edi
    2bca:	e8 c1 e9 ff ff       	callq  1590 <_ZnwmPv>
    2bcf:	48 89 c7             	mov    %rax,%rdi
    2bd2:	e8 5d fc ff ff       	callq  2834 <_ZNSt8__detail10_Hash_nodeISt4pairIKiiELb0EEC1Ev>
    2bd7:	48 8b 45 b0          	mov    -0x50(%rbp),%rax
    2bdb:	48 89 c7             	mov    %rax,%rdi
    2bde:	e8 c7 09 00 00       	callq  35aa <_ZSt7forwardISt5tupleIJEEEOT_RNSt16remove_referenceIS2_E4typeE>
    2be3:	49 89 c6             	mov    %rax,%r14
    2be6:	48 8b 45 b8          	mov    -0x48(%rbp),%rax
    2bea:	48 89 c7             	mov    %rax,%rdi
    2bed:	e8 80 0c 00 00       	callq  3872 <_ZSt7forwardISt5tupleIJRKiEEEOT_RNSt16remove_referenceIS4_E4typeE>
    2bf2:	49 89 c5             	mov    %rax,%r13
    2bf5:	48 8b 45 c0          	mov    -0x40(%rbp),%rax
    2bf9:	48 89 c7             	mov    %rax,%rdi
    2bfc:	e8 85 09 00 00       	callq  3586 <_ZSt7forwardIRKSt21piecewise_construct_tEOT_RNSt16remove_referenceIS3_E4typeE>
    2c01:	49 89 c4             	mov    %rax,%r12
    2c04:	48 8b 45 d8          	mov    -0x28(%rbp),%rax
    2c08:	48 89 c7             	mov    %rax,%rdi
    2c0b:	e8 54 09 00 00       	callq  3564 <_ZNSt8__detail21_Hash_node_value_baseISt4pairIKiiEE9_M_valptrEv>
    2c10:	48 89 c3             	mov    %rax,%rbx
    2c13:	48 8b 45 c8          	mov    -0x38(%rbp),%rax
    2c17:	48 89 c7             	mov    %rax,%rdi
    2c1a:	e8 e7 08 00 00       	callq  3506 <_ZNSt8__detail16_Hashtable_allocISaINS_10_Hash_nodeISt4pairIKiiELb0EEEEE17_M_node_allocatorEv>
    2c1f:	4d 89 f0             	mov    %r14,%r8
    2c22:	4c 89 e9             	mov    %r13,%rcx
    2c25:	4c 89 e2             	mov    %r12,%rdx
    2c28:	48 89 de             	mov    %rbx,%rsi
    2c2b:	48 89 c7             	mov    %rax,%rdi
    2c2e:	e8 51 0c 00 00       	callq  3884 <_ZNSt16allocator_traitsISaINSt8__detail10_Hash_nodeISt4pairIKiiELb0EEEEE9constructIS4_JRKSt21piecewise_construct_tSt5tupleIJRS3_EESC_IJEEEEEvRS6_PT_DpOT0_>
    2c33:	48 8b 45 d8          	mov    -0x28(%rbp),%rax
    2c37:	eb 4b                	jmp    2c84 <_ZNSt8__detail16_Hashtable_allocISaINS_10_Hash_nodeISt4pairIKiiELb0EEEEE16_M_allocate_nodeIJRKSt21piecewise_construct_tSt5tupleIJRS3_EESC_IJEEEEEPS5_DpOT_+0x116>
    2c39:	f3 0f 1e fa          	endbr64 
    2c3d:	48 89 c7             	mov    %rax,%rdi
    2c40:	e8 1b e5 ff ff       	callq  1160 <__cxa_begin_catch@plt>
    2c45:	48 8b 45 c8          	mov    -0x38(%rbp),%rax
    2c49:	48 89 c7             	mov    %rax,%rdi
    2c4c:	e8 b5 08 00 00       	callq  3506 <_ZNSt8__detail16_Hashtable_allocISaINS_10_Hash_nodeISt4pairIKiiELb0EEEEE17_M_node_allocatorEv>
    2c51:	48 89 c1             	mov    %rax,%rcx
    2c54:	48 8b 45 d0          	mov    -0x30(%rbp),%rax
    2c58:	ba 01 00 00 00       	mov    $0x1,%edx
    2c5d:	48 89 c6             	mov    %rax,%rsi
    2c60:	48 89 cf             	mov    %rcx,%rdi
    2c63:	e8 c4 09 00 00       	callq  362c <_ZNSt16allocator_traitsISaINSt8__detail10_Hash_nodeISt4pairIKiiELb0EEEEE10deallocateERS6_PS5_m>
    2c68:	e8 93 e5 ff ff       	callq  1200 <__cxa_rethrow@plt>
    2c6d:	f3 0f 1e fa          	endbr64 
    2c71:	48 89 c3             	mov    %rax,%rbx
    2c74:	e8 b7 e5 ff ff       	callq  1230 <__cxa_end_catch@plt>
    2c79:	48 89 d8             	mov    %rbx,%rax
    2c7c:	48 89 c7             	mov    %rax,%rdi
    2c7f:	e8 cc e5 ff ff       	callq  1250 <_Unwind_Resume@plt>
    2c84:	48 83 c4 30          	add    $0x30,%rsp
    2c88:	5b                   	pop    %rbx
    2c89:	41 5c                	pop    %r12
    2c8b:	41 5d                	pop    %r13
    2c8d:	41 5e                	pop    %r14
    2c8f:	5d                   	pop    %rbp
    2c90:	c3                   	retq   

0000000000002c91 <_ZNSt16allocator_traitsISaIiEE9constructIiJiEEEvRS0_PT_DpOT0_>:
    2c91:	f3 0f 1e fa          	endbr64 
    2c95:	55                   	push   %rbp
    2c96:	48 89 e5             	mov    %rsp,%rbp
    2c99:	48 83 ec 20          	sub    $0x20,%rsp
    2c9d:	48 89 7d f8          	mov    %rdi,-0x8(%rbp)
    2ca1:	48 89 75 f0          	mov    %rsi,-0x10(%rbp)
    2ca5:	48 89 55 e8          	mov    %rdx,-0x18(%rbp)
    2ca9:	48 8b 45 e8          	mov    -0x18(%rbp),%rax
    2cad:	48 89 c7             	mov    %rax,%rdi
    2cb0:	e8 76 ed ff ff       	callq  1a2b <_ZSt7forwardIiEOT_RNSt16remove_referenceIS0_E4typeE>
    2cb5:	48 89 c2             	mov    %rax,%rdx
    2cb8:	48 8b 4d f0          	mov    -0x10(%rbp),%rcx
    2cbc:	48 8b 45 f8          	mov    -0x8(%rbp),%rax
    2cc0:	48 89 ce             	mov    %rcx,%rsi
    2cc3:	48 89 c7             	mov    %rax,%rdi
    2cc6:	e8 29 0c 00 00       	callq  38f4 <_ZN9__gnu_cxx13new_allocatorIiE9constructIiJiEEEvPT_DpOT0_>
    2ccb:	90                   	nop
    2ccc:	c9                   	leaveq 
    2ccd:	c3                   	retq   

0000000000002cce <_ZNSt6vectorIiSaIiEE15_S_use_relocateEv>:
    2cce:	f3 0f 1e fa          	endbr64 
    2cd2:	55                   	push   %rbp
    2cd3:	48 89 e5             	mov    %rsp,%rbp
    2cd6:	48 83 ec 10          	sub    $0x10,%rsp
    2cda:	64 48 8b 04 25 28 00 	mov    %fs:0x28,%rax
    2ce1:	00 00 
    2ce3:	48 89 45 f8          	mov    %rax,-0x8(%rbp)
    2ce7:	31 c0                	xor    %eax,%eax
    2ce9:	e8 16 00 00 00       	callq  2d04 <_ZNSt6vectorIiSaIiEE19_S_nothrow_relocateESt17integral_constantIbLb1EE>
    2cee:	48 8b 55 f8          	mov    -0x8(%rbp),%rdx
    2cf2:	64 48 33 14 25 28 00 	xor    %fs:0x28,%rdx
    2cf9:	00 00 
    2cfb:	74 05                	je     2d02 <_ZNSt6vectorIiSaIiEE15_S_use_relocateEv+0x34>
    2cfd:	e8 de e4 ff ff       	callq  11e0 <__stack_chk_fail@plt>
    2d02:	c9                   	leaveq 
    2d03:	c3                   	retq   

0000000000002d04 <_ZNSt6vectorIiSaIiEE19_S_nothrow_relocateESt17integral_constantIbLb1EE>:
    2d04:	f3 0f 1e fa          	endbr64 
    2d08:	55                   	push   %rbp
    2d09:	48 89 e5             	mov    %rsp,%rbp
    2d0c:	b8 01 00 00 00       	mov    $0x1,%eax
    2d11:	5d                   	pop    %rbp
    2d12:	c3                   	retq   
    2d13:	90                   	nop

0000000000002d14 <_ZNSt6vectorIiSaIiEE17_M_realloc_insertIJiEEEvN9__gnu_cxx17__normal_iteratorIPiS1_EEDpOT_>:
    2d14:	f3 0f 1e fa          	endbr64 
    2d18:	55                   	push   %rbp
    2d19:	48 89 e5             	mov    %rsp,%rbp
    2d1c:	53                   	push   %rbx
    2d1d:	48 83 ec 68          	sub    $0x68,%rsp
    2d21:	48 89 7d a8          	mov    %rdi,-0x58(%rbp)
    2d25:	48 89 75 a0          	mov    %rsi,-0x60(%rbp)
    2d29:	48 89 55 98          	mov    %rdx,-0x68(%rbp)
    2d2d:	64 48 8b 04 25 28 00 	mov    %fs:0x28,%rax
    2d34:	00 00 
    2d36:	48 89 45 e8          	mov    %rax,-0x18(%rbp)
    2d3a:	31 c0                	xor    %eax,%eax
    2d3c:	48 8b 45 a8          	mov    -0x58(%rbp),%rax
    2d40:	48 8d 15 c6 32 00 00 	lea    0x32c6(%rip),%rdx        # 600d <_ZStL6ignore+0x3>
    2d47:	be 01 00 00 00       	mov    $0x1,%esi
    2d4c:	48 89 c7             	mov    %rax,%rdi
    2d4f:	e8 e2 0b 00 00       	callq  3936 <_ZNKSt6vectorIiSaIiEE12_M_check_lenEmPKc>
    2d54:	48 89 45 c0          	mov    %rax,-0x40(%rbp)
    2d58:	48 8b 45 a8          	mov    -0x58(%rbp),%rax
    2d5c:	48 8b 00             	mov    (%rax),%rax
    2d5f:	48 89 45 c8          	mov    %rax,-0x38(%rbp)
    2d63:	48 8b 45 a8          	mov    -0x58(%rbp),%rax
    2d67:	48 8b 40 08          	mov    0x8(%rax),%rax
    2d6b:	48 89 45 d0          	mov    %rax,-0x30(%rbp)
    2d6f:	48 8b 45 a8          	mov    -0x58(%rbp),%rax
    2d73:	48 89 c7             	mov    %rax,%rdi
    2d76:	e8 43 f0 ff ff       	callq  1dbe <_ZNSt6vectorIiSaIiEE5beginEv>
    2d7b:	48 89 45 b0          	mov    %rax,-0x50(%rbp)
    2d7f:	48 8d 55 b0          	lea    -0x50(%rbp),%rdx
    2d83:	48 8d 45 a0          	lea    -0x60(%rbp),%rax
    2d87:	48 89 d6             	mov    %rdx,%rsi
    2d8a:	48 89 c7             	mov    %rax,%rdi
    2d8d:	e8 94 0c 00 00       	callq  3a26 <_ZN9__gnu_cxxmiIPiSt6vectorIiSaIiEEEENS_17__normal_iteratorIT_T0_E15difference_typeERKS8_SB_>
    2d92:	48 89 45 d8          	mov    %rax,-0x28(%rbp)
    2d96:	48 8b 45 a8          	mov    -0x58(%rbp),%rax
    2d9a:	48 8b 55 c0          	mov    -0x40(%rbp),%rdx
    2d9e:	48 89 d6             	mov    %rdx,%rsi
    2da1:	48 89 c7             	mov    %rax,%rdi
    2da4:	e8 a1 03 00 00       	callq  314a <_ZNSt12_Vector_baseIiSaIiEE11_M_allocateEm>
    2da9:	48 89 45 e0          	mov    %rax,-0x20(%rbp)
    2dad:	48 8b 45 e0          	mov    -0x20(%rbp),%rax
    2db1:	48 89 45 b8          	mov    %rax,-0x48(%rbp)
    2db5:	48 8b 45 98          	mov    -0x68(%rbp),%rax
    2db9:	48 89 c7             	mov    %rax,%rdi
    2dbc:	e8 6a ec ff ff       	callq  1a2b <_ZSt7forwardIiEOT_RNSt16remove_referenceIS0_E4typeE>
    2dc1:	48 89 c2             	mov    %rax,%rdx
    2dc4:	48 8b 45 d8          	mov    -0x28(%rbp),%rax
    2dc8:	48 8d 0c 85 00 00 00 	lea    0x0(,%rax,4),%rcx
    2dcf:	00 
    2dd0:	48 8b 45 e0          	mov    -0x20(%rbp),%rax
    2dd4:	48 01 c1             	add    %rax,%rcx
    2dd7:	48 8b 45 a8          	mov    -0x58(%rbp),%rax
    2ddb:	48 89 ce             	mov    %rcx,%rsi
    2dde:	48 89 c7             	mov    %rax,%rdi
    2de1:	e8 ab fe ff ff       	callq  2c91 <_ZNSt16allocator_traitsISaIiEE9constructIiJiEEEvRS0_PT_DpOT0_>
    2de6:	48 c7 45 b8 00 00 00 	movq   $0x0,-0x48(%rbp)
    2ded:	00 
    2dee:	e8 db fe ff ff       	callq  2cce <_ZNSt6vectorIiSaIiEE15_S_use_relocateEv>
    2df3:	84 c0                	test   %al,%al
    2df5:	74 71                	je     2e68 <_ZNSt6vectorIiSaIiEE17_M_realloc_insertIJiEEEvN9__gnu_cxx17__normal_iteratorIPiS1_EEDpOT_+0x154>
    2df7:	48 8b 45 a8          	mov    -0x58(%rbp),%rax
    2dfb:	48 89 c7             	mov    %rax,%rdi
    2dfe:	e8 0d f2 ff ff       	callq  2010 <_ZNSt12_Vector_baseIiSaIiEE19_M_get_Tp_allocatorEv>
    2e03:	48 89 c3             	mov    %rax,%rbx
    2e06:	48 8d 45 a0          	lea    -0x60(%rbp),%rax
    2e0a:	48 89 c7             	mov    %rax,%rdi
    2e0d:	e8 9e f7 ff ff       	callq  25b0 <_ZNK9__gnu_cxx17__normal_iteratorIPiSt6vectorIiSaIiEEE4baseEv>
    2e12:	48 8b 30             	mov    (%rax),%rsi
    2e15:	48 8b 55 e0          	mov    -0x20(%rbp),%rdx
    2e19:	48 8b 45 c8          	mov    -0x38(%rbp),%rax
    2e1d:	48 89 d9             	mov    %rbx,%rcx
    2e20:	48 89 c7             	mov    %rax,%rdi
    2e23:	e8 42 0c 00 00       	callq  3a6a <_ZNSt6vectorIiSaIiEE11_S_relocateEPiS2_S2_RS0_>
    2e28:	48 89 45 b8          	mov    %rax,-0x48(%rbp)
    2e2c:	48 83 45 b8 04       	addq   $0x4,-0x48(%rbp)
    2e31:	48 8b 45 a8          	mov    -0x58(%rbp),%rax
    2e35:	48 89 c7             	mov    %rax,%rdi
    2e38:	e8 d3 f1 ff ff       	callq  2010 <_ZNSt12_Vector_baseIiSaIiEE19_M_get_Tp_allocatorEv>
    2e3d:	48 89 c3             	mov    %rax,%rbx
    2e40:	48 8d 45 a0          	lea    -0x60(%rbp),%rax
    2e44:	48 89 c7             	mov    %rax,%rdi
    2e47:	e8 64 f7 ff ff       	callq  25b0 <_ZNK9__gnu_cxx17__normal_iteratorIPiSt6vectorIiSaIiEEE4baseEv>
    2e4c:	48 8b 00             	mov    (%rax),%rax
    2e4f:	48 8b 55 b8          	mov    -0x48(%rbp),%rdx
    2e53:	48 8b 75 d0          	mov    -0x30(%rbp),%rsi
    2e57:	48 89 d9             	mov    %rbx,%rcx
    2e5a:	48 89 c7             	mov    %rax,%rdi
    2e5d:	e8 08 0c 00 00       	callq  3a6a <_ZNSt6vectorIiSaIiEE11_S_relocateEPiS2_S2_RS0_>
    2e62:	48 89 45 b8          	mov    %rax,-0x48(%rbp)
    2e66:	eb 6f                	jmp    2ed7 <_ZNSt6vectorIiSaIiEE17_M_realloc_insertIJiEEEvN9__gnu_cxx17__normal_iteratorIPiS1_EEDpOT_+0x1c3>
    2e68:	48 8b 45 a8          	mov    -0x58(%rbp),%rax
    2e6c:	48 89 c7             	mov    %rax,%rdi
    2e6f:	e8 9c f1 ff ff       	callq  2010 <_ZNSt12_Vector_baseIiSaIiEE19_M_get_Tp_allocatorEv>
    2e74:	48 89 c3             	mov    %rax,%rbx
    2e77:	48 8d 45 a0          	lea    -0x60(%rbp),%rax
    2e7b:	48 89 c7             	mov    %rax,%rdi
    2e7e:	e8 2d f7 ff ff       	callq  25b0 <_ZNK9__gnu_cxx17__normal_iteratorIPiSt6vectorIiSaIiEEE4baseEv>
    2e83:	48 8b 30             	mov    (%rax),%rsi
    2e86:	48 8b 55 e0          	mov    -0x20(%rbp),%rdx
    2e8a:	48 8b 45 c8          	mov    -0x38(%rbp),%rax
    2e8e:	48 89 d9             	mov    %rbx,%rcx
    2e91:	48 89 c7             	mov    %rax,%rdi
    2e94:	e8 2a 0c 00 00       	callq  3ac3 <_ZSt34__uninitialized_move_if_noexcept_aIPiS0_SaIiEET0_T_S3_S2_RT1_>
    2e99:	48 89 45 b8          	mov    %rax,-0x48(%rbp)
    2e9d:	48 83 45 b8 04       	addq   $0x4,-0x48(%rbp)
    2ea2:	48 8b 45 a8          	mov    -0x58(%rbp),%rax
    2ea6:	48 89 c7             	mov    %rax,%rdi
    2ea9:	e8 62 f1 ff ff       	callq  2010 <_ZNSt12_Vector_baseIiSaIiEE19_M_get_Tp_allocatorEv>
    2eae:	48 89 c3             	mov    %rax,%rbx
    2eb1:	48 8d 45 a0          	lea    -0x60(%rbp),%rax
    2eb5:	48 89 c7             	mov    %rax,%rdi
    2eb8:	e8 f3 f6 ff ff       	callq  25b0 <_ZNK9__gnu_cxx17__normal_iteratorIPiSt6vectorIiSaIiEEE4baseEv>
    2ebd:	48 8b 00             	mov    (%rax),%rax
    2ec0:	48 8b 55 b8          	mov    -0x48(%rbp),%rdx
    2ec4:	48 8b 75 d0          	mov    -0x30(%rbp),%rsi
    2ec8:	48 89 d9             	mov    %rbx,%rcx
    2ecb:	48 89 c7             	mov    %rax,%rdi
    2ece:	e8 f0 0b 00 00       	callq  3ac3 <_ZSt34__uninitialized_move_if_noexcept_aIPiS0_SaIiEET0_T_S3_S2_RT1_>
    2ed3:	48 89 45 b8          	mov    %rax,-0x48(%rbp)
    2ed7:	e8 f2 fd ff ff       	callq  2cce <_ZNSt6vectorIiSaIiEE15_S_use_relocateEv>
    2edc:	83 f0 01             	xor    $0x1,%eax
    2edf:	84 c0                	test   %al,%al
    2ee1:	74 22                	je     2f05 <_ZNSt6vectorIiSaIiEE17_M_realloc_insertIJiEEEvN9__gnu_cxx17__normal_iteratorIPiS1_EEDpOT_+0x1f1>
    2ee3:	48 8b 45 a8          	mov    -0x58(%rbp),%rax
    2ee7:	48 89 c7             	mov    %rax,%rdi
    2eea:	e8 21 f1 ff ff       	callq  2010 <_ZNSt12_Vector_baseIiSaIiEE19_M_get_Tp_allocatorEv>
    2eef:	48 89 c2             	mov    %rax,%rdx
    2ef2:	48 8b 4d d0          	mov    -0x30(%rbp),%rcx
    2ef6:	48 8b 45 c8          	mov    -0x38(%rbp),%rax
    2efa:	48 89 ce             	mov    %rcx,%rsi
    2efd:	48 89 c7             	mov    %rax,%rdi
    2f00:	e8 1d f1 ff ff       	callq  2022 <_ZSt8_DestroyIPiiEvT_S1_RSaIT0_E>
    2f05:	48 8b 45 a8          	mov    -0x58(%rbp),%rax
    2f09:	48 8b 55 a8          	mov    -0x58(%rbp),%rdx
    2f0d:	48 8b 52 10          	mov    0x10(%rdx),%rdx
    2f11:	48 2b 55 c8          	sub    -0x38(%rbp),%rdx
    2f15:	48 c1 fa 02          	sar    $0x2,%rdx
    2f19:	48 8b 4d c8          	mov    -0x38(%rbp),%rcx
    2f1d:	48 89 ce             	mov    %rcx,%rsi
    2f20:	48 89 c7             	mov    %rax,%rdi
    2f23:	e8 ae f0 ff ff       	callq  1fd6 <_ZNSt12_Vector_baseIiSaIiEE13_M_deallocateEPim>
    2f28:	48 8b 45 a8          	mov    -0x58(%rbp),%rax
    2f2c:	48 8b 55 e0          	mov    -0x20(%rbp),%rdx
    2f30:	48 89 10             	mov    %rdx,(%rax)
    2f33:	48 8b 45 a8          	mov    -0x58(%rbp),%rax
    2f37:	48 8b 55 b8          	mov    -0x48(%rbp),%rdx
    2f3b:	48 89 50 08          	mov    %rdx,0x8(%rax)
    2f3f:	48 8b 45 c0          	mov    -0x40(%rbp),%rax
    2f43:	48 8d 14 85 00 00 00 	lea    0x0(,%rax,4),%rdx
    2f4a:	00 
    2f4b:	48 8b 45 e0          	mov    -0x20(%rbp),%rax
    2f4f:	48 01 c2             	add    %rax,%rdx
    2f52:	48 8b 45 a8          	mov    -0x58(%rbp),%rax
    2f56:	48 89 50 10          	mov    %rdx,0x10(%rax)
    2f5a:	90                   	nop
    2f5b:	48 8b 45 e8          	mov    -0x18(%rbp),%rax
    2f5f:	64 48 33 04 25 28 00 	xor    %fs:0x28,%rax
    2f66:	00 00 
    2f68:	0f 84 96 00 00 00    	je     3004 <_ZNSt6vectorIiSaIiEE17_M_realloc_insertIJiEEEvN9__gnu_cxx17__normal_iteratorIPiS1_EEDpOT_+0x2f0>
    2f6e:	e9 8c 00 00 00       	jmpq   2fff <_ZNSt6vectorIiSaIiEE17_M_realloc_insertIJiEEEvN9__gnu_cxx17__normal_iteratorIPiS1_EEDpOT_+0x2eb>
    2f73:	f3 0f 1e fa          	endbr64 
    2f77:	48 89 c7             	mov    %rax,%rdi
    2f7a:	e8 e1 e1 ff ff       	callq  1160 <__cxa_begin_catch@plt>
    2f7f:	48 83 7d b8 00       	cmpq   $0x0,-0x48(%rbp)
    2f84:	75 24                	jne    2faa <_ZNSt6vectorIiSaIiEE17_M_realloc_insertIJiEEEvN9__gnu_cxx17__normal_iteratorIPiS1_EEDpOT_+0x296>
    2f86:	48 8b 45 d8          	mov    -0x28(%rbp),%rax
    2f8a:	48 8d 14 85 00 00 00 	lea    0x0(,%rax,4),%rdx
    2f91:	00 
    2f92:	48 8b 45 e0          	mov    -0x20(%rbp),%rax
    2f96:	48 01 c2             	add    %rax,%rdx
    2f99:	48 8b 45 a8          	mov    -0x58(%rbp),%rax
    2f9d:	48 89 d6             	mov    %rdx,%rsi
    2fa0:	48 89 c7             	mov    %rax,%rdi
    2fa3:	e8 73 0b 00 00       	callq  3b1b <_ZNSt16allocator_traitsISaIiEE7destroyIiEEvRS0_PT_>
    2fa8:	eb 22                	jmp    2fcc <_ZNSt6vectorIiSaIiEE17_M_realloc_insertIJiEEEvN9__gnu_cxx17__normal_iteratorIPiS1_EEDpOT_+0x2b8>
    2faa:	48 8b 45 a8          	mov    -0x58(%rbp),%rax
    2fae:	48 89 c7             	mov    %rax,%rdi
    2fb1:	e8 5a f0 ff ff       	callq  2010 <_ZNSt12_Vector_baseIiSaIiEE19_M_get_Tp_allocatorEv>
    2fb6:	48 89 c2             	mov    %rax,%rdx
    2fb9:	48 8b 4d b8          	mov    -0x48(%rbp),%rcx
    2fbd:	48 8b 45 e0          	mov    -0x20(%rbp),%rax
    2fc1:	48 89 ce             	mov    %rcx,%rsi
    2fc4:	48 89 c7             	mov    %rax,%rdi
    2fc7:	e8 56 f0 ff ff       	callq  2022 <_ZSt8_DestroyIPiiEvT_S1_RSaIT0_E>
    2fcc:	48 8b 45 a8          	mov    -0x58(%rbp),%rax
    2fd0:	48 8b 55 c0          	mov    -0x40(%rbp),%rdx
    2fd4:	48 8b 4d e0          	mov    -0x20(%rbp),%rcx
    2fd8:	48 89 ce             	mov    %rcx,%rsi
    2fdb:	48 89 c7             	mov    %rax,%rdi
    2fde:	e8 f3 ef ff ff       	callq  1fd6 <_ZNSt12_Vector_baseIiSaIiEE13_M_deallocateEPim>
    2fe3:	e8 18 e2 ff ff       	callq  1200 <__cxa_rethrow@plt>
    2fe8:	f3 0f 1e fa          	endbr64 
    2fec:	48 89 c3             	mov    %rax,%rbx
    2fef:	e8 3c e2 ff ff       	callq  1230 <__cxa_end_catch@plt>
    2ff4:	48 89 d8             	mov    %rbx,%rax
    2ff7:	48 89 c7             	mov    %rax,%rdi
    2ffa:	e8 51 e2 ff ff       	callq  1250 <_Unwind_Resume@plt>
    2fff:	e8 dc e1 ff ff       	callq  11e0 <__stack_chk_fail@plt>
    3004:	48 83 c4 68          	add    $0x68,%rsp
    3008:	5b                   	pop    %rbx
    3009:	5d                   	pop    %rbp
    300a:	c3                   	retq   
    300b:	90                   	nop

000000000000300c <_ZN9__gnu_cxx13new_allocatorIiEC1ERKS1_>:
    300c:	f3 0f 1e fa          	endbr64 
    3010:	55                   	push   %rbp
    3011:	48 89 e5             	mov    %rsp,%rbp
    3014:	48 89 7d f8          	mov    %rdi,-0x8(%rbp)
    3018:	48 89 75 f0          	mov    %rsi,-0x10(%rbp)
    301c:	90                   	nop
    301d:	5d                   	pop    %rbp
    301e:	c3                   	retq   
    301f:	90                   	nop

0000000000003020 <_ZNSt12_Vector_baseIiSaIiEE12_Vector_implC1ERKS0_>:
    3020:	f3 0f 1e fa          	endbr64 
    3024:	55                   	push   %rbp
    3025:	48 89 e5             	mov    %rsp,%rbp
    3028:	48 83 ec 10          	sub    $0x10,%rsp
    302c:	48 89 7d f8          	mov    %rdi,-0x8(%rbp)
    3030:	48 89 75 f0          	mov    %rsi,-0x10(%rbp)
    3034:	48 8b 55 f0          	mov    -0x10(%rbp),%rdx
    3038:	48 8b 45 f8          	mov    -0x8(%rbp),%rax
    303c:	48 89 d6             	mov    %rdx,%rsi
    303f:	48 89 c7             	mov    %rax,%rdi
    3042:	e8 df f3 ff ff       	callq  2426 <_ZNSaIiEC1ERKS_>
    3047:	48 8b 45 f8          	mov    -0x8(%rbp),%rax
    304b:	48 89 c7             	mov    %rax,%rdi
    304e:	e8 41 ef ff ff       	callq  1f94 <_ZNSt12_Vector_baseIiSaIiEE17_Vector_impl_dataC1Ev>
    3053:	90                   	nop
    3054:	c9                   	leaveq 
    3055:	c3                   	retq   

0000000000003056 <_ZNKSt16initializer_listIiE4sizeEv>:
    3056:	f3 0f 1e fa          	endbr64 
    305a:	55                   	push   %rbp
    305b:	48 89 e5             	mov    %rsp,%rbp
    305e:	48 89 7d f8          	mov    %rdi,-0x8(%rbp)
    3062:	48 8b 45 f8          	mov    -0x8(%rbp),%rax
    3066:	48 8b 40 08          	mov    0x8(%rax),%rax
    306a:	5d                   	pop    %rbp
    306b:	c3                   	retq   

000000000000306c <_ZSt8distanceIPKiENSt15iterator_traitsIT_E15difference_typeES3_S3_>:
    306c:	f3 0f 1e fa          	endbr64 
    3070:	55                   	push   %rbp
    3071:	48 89 e5             	mov    %rsp,%rbp
    3074:	48 83 ec 20          	sub    $0x20,%rsp
    3078:	48 89 7d e8          	mov    %rdi,-0x18(%rbp)
    307c:	48 89 75 e0          	mov    %rsi,-0x20(%rbp)
    3080:	64 48 8b 04 25 28 00 	mov    %fs:0x28,%rax
    3087:	00 00 
    3089:	48 89 45 f8          	mov    %rax,-0x8(%rbp)
    308d:	31 c0                	xor    %eax,%eax
    308f:	48 8d 45 e8          	lea    -0x18(%rbp),%rax
    3093:	48 89 c7             	mov    %rax,%rdi
    3096:	e8 aa 0a 00 00       	callq  3b45 <_ZSt19__iterator_categoryIPKiENSt15iterator_traitsIT_E17iterator_categoryERKS3_>
    309b:	48 8b 45 e8          	mov    -0x18(%rbp),%rax
    309f:	48 8b 55 e0          	mov    -0x20(%rbp),%rdx
    30a3:	48 89 d6             	mov    %rdx,%rsi
    30a6:	48 89 c7             	mov    %rax,%rdi
    30a9:	e8 a5 0a 00 00       	callq  3b53 <_ZSt10__distanceIPKiENSt15iterator_traitsIT_E15difference_typeES3_S3_St26random_access_iterator_tag>
    30ae:	48 8b 4d f8          	mov    -0x8(%rbp),%rcx
    30b2:	64 48 33 0c 25 28 00 	xor    %fs:0x28,%rcx
    30b9:	00 00 
    30bb:	74 05                	je     30c2 <_ZSt8distanceIPKiENSt15iterator_traitsIT_E15difference_typeES3_S3_+0x56>
    30bd:	e8 1e e1 ff ff       	callq  11e0 <__stack_chk_fail@plt>
    30c2:	c9                   	leaveq 
    30c3:	c3                   	retq   

00000000000030c4 <_ZNSt6vectorIiSaIiEE17_S_check_init_lenEmRKS0_>:
    30c4:	f3 0f 1e fa          	endbr64 
    30c8:	55                   	push   %rbp
    30c9:	48 89 e5             	mov    %rsp,%rbp
    30cc:	53                   	push   %rbx
    30cd:	48 83 ec 28          	sub    $0x28,%rsp
    30d1:	48 89 7d d8          	mov    %rdi,-0x28(%rbp)
    30d5:	48 89 75 d0          	mov    %rsi,-0x30(%rbp)
    30d9:	64 48 8b 04 25 28 00 	mov    %fs:0x28,%rax
    30e0:	00 00 
    30e2:	48 89 45 e8          	mov    %rax,-0x18(%rbp)
    30e6:	31 c0                	xor    %eax,%eax
    30e8:	48 8b 55 d0          	mov    -0x30(%rbp),%rdx
    30ec:	48 8d 45 e7          	lea    -0x19(%rbp),%rax
    30f0:	48 89 d6             	mov    %rdx,%rsi
    30f3:	48 89 c7             	mov    %rax,%rdi
    30f6:	e8 2b f3 ff ff       	callq  2426 <_ZNSaIiEC1ERKS_>
    30fb:	48 8d 45 e7          	lea    -0x19(%rbp),%rax
    30ff:	48 89 c7             	mov    %rax,%rdi
    3102:	e8 6a 0a 00 00       	callq  3b71 <_ZNSt6vectorIiSaIiEE11_S_max_sizeERKS0_>
    3107:	48 39 45 d8          	cmp    %rax,-0x28(%rbp)
    310b:	0f 97 c3             	seta   %bl
    310e:	48 8d 45 e7          	lea    -0x19(%rbp),%rax
    3112:	48 89 c7             	mov    %rax,%rdi
    3115:	e8 c8 e9 ff ff       	callq  1ae2 <_ZNSaIiED1Ev>
    311a:	84 db                	test   %bl,%bl
    311c:	74 0c                	je     312a <_ZNSt6vectorIiSaIiEE17_S_check_init_lenEmRKS0_+0x66>
    311e:	48 8d 3d 03 2f 00 00 	lea    0x2f03(%rip),%rdi        # 6028 <_ZStL6ignore+0x1e>
    3125:	e8 46 e0 ff ff       	callq  1170 <_ZSt20__throw_length_errorPKc@plt>
    312a:	48 8b 45 d8          	mov    -0x28(%rbp),%rax
    312e:	48 8b 4d e8          	mov    -0x18(%rbp),%rcx
    3132:	64 48 33 0c 25 28 00 	xor    %fs:0x28,%rcx
    3139:	00 00 
    313b:	74 05                	je     3142 <_ZNSt6vectorIiSaIiEE17_S_check_init_lenEmRKS0_+0x7e>
    313d:	e8 9e e0 ff ff       	callq  11e0 <__stack_chk_fail@plt>
    3142:	48 83 c4 28          	add    $0x28,%rsp
    3146:	5b                   	pop    %rbx
    3147:	5d                   	pop    %rbp
    3148:	c3                   	retq   
    3149:	90                   	nop

000000000000314a <_ZNSt12_Vector_baseIiSaIiEE11_M_allocateEm>:
    314a:	f3 0f 1e fa          	endbr64 
    314e:	55                   	push   %rbp
    314f:	48 89 e5             	mov    %rsp,%rbp
    3152:	48 83 ec 10          	sub    $0x10,%rsp
    3156:	48 89 7d f8          	mov    %rdi,-0x8(%rbp)
    315a:	48 89 75 f0          	mov    %rsi,-0x10(%rbp)
    315e:	48 83 7d f0 00       	cmpq   $0x0,-0x10(%rbp)
    3163:	74 15                	je     317a <_ZNSt12_Vector_baseIiSaIiEE11_M_allocateEm+0x30>
    3165:	48 8b 45 f8          	mov    -0x8(%rbp),%rax
    3169:	48 8b 55 f0          	mov    -0x10(%rbp),%rdx
    316d:	48 89 d6             	mov    %rdx,%rsi
    3170:	48 89 c7             	mov    %rax,%rdi
    3173:	e8 62 0a 00 00       	callq  3bda <_ZNSt16allocator_traitsISaIiEE8allocateERS0_m>
    3178:	eb 05                	jmp    317f <_ZNSt12_Vector_baseIiSaIiEE11_M_allocateEm+0x35>
    317a:	b8 00 00 00 00       	mov    $0x0,%eax
    317f:	c9                   	leaveq 
    3180:	c3                   	retq   

0000000000003181 <_ZSt22__uninitialized_copy_aIPKiPiiET0_T_S4_S3_RSaIT1_E>:
    3181:	f3 0f 1e fa          	endbr64 
    3185:	55                   	push   %rbp
    3186:	48 89 e5             	mov    %rsp,%rbp
    3189:	48 83 ec 20          	sub    $0x20,%rsp
    318d:	48 89 7d f8          	mov    %rdi,-0x8(%rbp)
    3191:	48 89 75 f0          	mov    %rsi,-0x10(%rbp)
    3195:	48 89 55 e8          	mov    %rdx,-0x18(%rbp)
    3199:	48 89 4d e0          	mov    %rcx,-0x20(%rbp)
    319d:	48 8b 55 e8          	mov    -0x18(%rbp),%rdx
    31a1:	48 8b 4d f0          	mov    -0x10(%rbp),%rcx
    31a5:	48 8b 45 f8          	mov    -0x8(%rbp),%rax
    31a9:	48 89 ce             	mov    %rcx,%rsi
    31ac:	48 89 c7             	mov    %rax,%rdi
    31af:	e8 54 0a 00 00       	callq  3c08 <_ZSt18uninitialized_copyIPKiPiET0_T_S4_S3_>
    31b4:	c9                   	leaveq 
    31b5:	c3                   	retq   

00000000000031b6 <_ZNKSt8__detail10_Hash_nodeISt4pairIKiiELb0EE7_M_nextEv>:
    31b6:	f3 0f 1e fa          	endbr64 
    31ba:	55                   	push   %rbp
    31bb:	48 89 e5             	mov    %rsp,%rbp
    31be:	48 89 7d f8          	mov    %rdi,-0x8(%rbp)
    31c2:	48 8b 45 f8          	mov    -0x8(%rbp),%rax
    31c6:	48 8b 00             	mov    (%rax),%rax
    31c9:	5d                   	pop    %rbp
    31ca:	c3                   	retq   
    31cb:	90                   	nop

00000000000031cc <_ZNSt8__detail16_Hashtable_allocISaINS_10_Hash_nodeISt4pairIKiiELb0EEEEE18_M_deallocate_nodeEPS5_>:
    31cc:	f3 0f 1e fa          	endbr64 
    31d0:	55                   	push   %rbp
    31d1:	48 89 e5             	mov    %rsp,%rbp
    31d4:	53                   	push   %rbx
    31d5:	48 83 ec 18          	sub    $0x18,%rsp
    31d9:	48 89 7d e8          	mov    %rdi,-0x18(%rbp)
    31dd:	48 89 75 e0          	mov    %rsi,-0x20(%rbp)
    31e1:	48 8b 45 e0          	mov    -0x20(%rbp),%rax
    31e5:	48 89 c7             	mov    %rax,%rdi
    31e8:	e8 77 03 00 00       	callq  3564 <_ZNSt8__detail21_Hash_node_value_baseISt4pairIKiiEE9_M_valptrEv>
    31ed:	48 89 c3             	mov    %rax,%rbx
    31f0:	48 8b 45 e8          	mov    -0x18(%rbp),%rax
    31f4:	48 89 c7             	mov    %rax,%rdi
    31f7:	e8 0a 03 00 00       	callq  3506 <_ZNSt8__detail16_Hashtable_allocISaINS_10_Hash_nodeISt4pairIKiiELb0EEEEE17_M_node_allocatorEv>
    31fc:	48 89 de             	mov    %rbx,%rsi
    31ff:	48 89 c7             	mov    %rax,%rdi
    3202:	e8 36 0a 00 00       	callq  3c3d <_ZNSt16allocator_traitsISaINSt8__detail10_Hash_nodeISt4pairIKiiELb0EEEEE7destroyIS4_EEvRS6_PT_>
    3207:	48 8b 55 e0          	mov    -0x20(%rbp),%rdx
    320b:	48 8b 45 e8          	mov    -0x18(%rbp),%rax
    320f:	48 89 d6             	mov    %rdx,%rsi
    3212:	48 89 c7             	mov    %rax,%rdi
    3215:	e8 4e 0a 00 00       	callq  3c68 <_ZNSt8__detail16_Hashtable_allocISaINS_10_Hash_nodeISt4pairIKiiELb0EEEEE22_M_deallocate_node_ptrEPS5_>
    321a:	90                   	nop
    321b:	48 83 c4 18          	add    $0x18,%rsp
    321f:	5b                   	pop    %rbx
    3220:	5d                   	pop    %rbp
    3221:	c3                   	retq   

0000000000003222 <_ZNKSt10_HashtableIiSt4pairIKiiESaIS2_ENSt8__detail10_Select1stESt8equal_toIiESt4hashIiENS4_18_Mod_range_hashingENS4_20_Default_ranged_hashENS4_20_Prime_rehash_policyENS4_17_Hashtable_traitsILb0ELb0ELb1EEEE21_M_uses_single_bucketEPPNS4_15_Hash_node_baseE>:
    3222:	f3 0f 1e fa          	endbr64 
    3226:	55                   	push   %rbp
    3227:	48 89 e5             	mov    %rsp,%rbp
    322a:	48 89 7d f8          	mov    %rdi,-0x8(%rbp)
    322e:	48 89 75 f0          	mov    %rsi,-0x10(%rbp)
    3232:	48 8b 45 f8          	mov    -0x8(%rbp),%rax
    3236:	48 83 c0 30          	add    $0x30,%rax
    323a:	48 39 45 f0          	cmp    %rax,-0x10(%rbp)
    323e:	0f 94 c0             	sete   %al
    3241:	0f b6 c0             	movzbl %al,%eax
    3244:	48 85 c0             	test   %rax,%rax
    3247:	0f 95 c0             	setne  %al
    324a:	5d                   	pop    %rbp
    324b:	c3                   	retq   

000000000000324c <_ZNSt8__detail16_Hashtable_allocISaINS_10_Hash_nodeISt4pairIKiiELb0EEEEE21_M_deallocate_bucketsEPPNS_15_Hash_node_baseEm>:
    324c:	f3 0f 1e fa          	endbr64 
    3250:	55                   	push   %rbp
    3251:	48 89 e5             	mov    %rsp,%rbp
    3254:	53                   	push   %rbx
    3255:	48 83 ec 48          	sub    $0x48,%rsp
    3259:	48 89 7d c8          	mov    %rdi,-0x38(%rbp)
    325d:	48 89 75 c0          	mov    %rsi,-0x40(%rbp)
    3261:	48 89 55 b8          	mov    %rdx,-0x48(%rbp)
    3265:	64 48 8b 04 25 28 00 	mov    %fs:0x28,%rax
    326c:	00 00 
    326e:	48 89 45 e8          	mov    %rax,-0x18(%rbp)
    3272:	31 c0                	xor    %eax,%eax
    3274:	48 8b 45 c0          	mov    -0x40(%rbp),%rax
    3278:	48 89 c7             	mov    %rax,%rdi
    327b:	e8 32 0a 00 00       	callq  3cb2 <_ZNSt14pointer_traitsIPPNSt8__detail15_Hash_node_baseEE10pointer_toERS2_>
    3280:	48 89 45 e0          	mov    %rax,-0x20(%rbp)
    3284:	48 8b 45 c8          	mov    -0x38(%rbp),%rax
    3288:	48 89 c7             	mov    %rax,%rdi
    328b:	e8 76 02 00 00       	callq  3506 <_ZNSt8__detail16_Hashtable_allocISaINS_10_Hash_nodeISt4pairIKiiELb0EEEEE17_M_node_allocatorEv>
    3290:	48 89 c2             	mov    %rax,%rdx
    3293:	48 8d 45 df          	lea    -0x21(%rbp),%rax
    3297:	48 89 d6             	mov    %rdx,%rsi
    329a:	48 89 c7             	mov    %rax,%rdi
    329d:	e8 2e 0a 00 00       	callq  3cd0 <_ZNSaIPNSt8__detail15_Hash_node_baseEEC1INS_10_Hash_nodeISt4pairIKiiELb0EEEEERKSaIT_E>
    32a2:	48 8b 55 b8          	mov    -0x48(%rbp),%rdx
    32a6:	48 8b 4d e0          	mov    -0x20(%rbp),%rcx
    32aa:	48 8d 45 df          	lea    -0x21(%rbp),%rax
    32ae:	48 89 ce             	mov    %rcx,%rsi
    32b1:	48 89 c7             	mov    %rax,%rdi
    32b4:	e8 5a 0a 00 00       	callq  3d13 <_ZNSt16allocator_traitsISaIPNSt8__detail15_Hash_node_baseEEE10deallocateERS3_PS2_m>
    32b9:	48 8d 45 df          	lea    -0x21(%rbp),%rax
    32bd:	48 89 c7             	mov    %rax,%rdi
    32c0:	e8 2f 0a 00 00       	callq  3cf4 <_ZNSaIPNSt8__detail15_Hash_node_baseEED1Ev>
    32c5:	90                   	nop
    32c6:	48 8b 45 e8          	mov    -0x18(%rbp),%rax
    32ca:	64 48 33 04 25 28 00 	xor    %fs:0x28,%rax
    32d1:	00 00 
    32d3:	74 25                	je     32fa <_ZNSt8__detail16_Hashtable_allocISaINS_10_Hash_nodeISt4pairIKiiELb0EEEEE21_M_deallocate_bucketsEPPNS_15_Hash_node_baseEm+0xae>
    32d5:	eb 1e                	jmp    32f5 <_ZNSt8__detail16_Hashtable_allocISaINS_10_Hash_nodeISt4pairIKiiELb0EEEEE21_M_deallocate_bucketsEPPNS_15_Hash_node_baseEm+0xa9>
    32d7:	f3 0f 1e fa          	endbr64 
    32db:	48 89 c3             	mov    %rax,%rbx
    32de:	48 8d 45 df          	lea    -0x21(%rbp),%rax
    32e2:	48 89 c7             	mov    %rax,%rdi
    32e5:	e8 0a 0a 00 00       	callq  3cf4 <_ZNSaIPNSt8__detail15_Hash_node_baseEED1Ev>
    32ea:	48 89 d8             	mov    %rbx,%rax
    32ed:	48 89 c7             	mov    %rax,%rdi
    32f0:	e8 5b df ff ff       	callq  1250 <_Unwind_Resume@plt>
    32f5:	e8 e6 de ff ff       	callq  11e0 <__stack_chk_fail@plt>
    32fa:	48 83 c4 48          	add    $0x48,%rsp
    32fe:	5b                   	pop    %rbx
    32ff:	5d                   	pop    %rbp
    3300:	c3                   	retq   
    3301:	90                   	nop

0000000000003302 <_ZN9__gnu_cxx13new_allocatorIiE10deallocateEPim>:
    3302:	f3 0f 1e fa          	endbr64 
    3306:	55                   	push   %rbp
    3307:	48 89 e5             	mov    %rsp,%rbp
    330a:	48 83 ec 20          	sub    $0x20,%rsp
    330e:	48 89 7d f8          	mov    %rdi,-0x8(%rbp)
    3312:	48 89 75 f0          	mov    %rsi,-0x10(%rbp)
    3316:	48 89 55 e8          	mov    %rdx,-0x18(%rbp)
    331a:	48 8b 45 f0          	mov    -0x10(%rbp),%rax
    331e:	48 89 c7             	mov    %rax,%rdi
    3321:	e8 7a de ff ff       	callq  11a0 <_ZdlPv@plt>
    3326:	90                   	nop
    3327:	c9                   	leaveq 
    3328:	c3                   	retq   

0000000000003329 <_ZNSt12_Destroy_auxILb1EE9__destroyIPiEEvT_S3_>:
    3329:	f3 0f 1e fa          	endbr64 
    332d:	55                   	push   %rbp
    332e:	48 89 e5             	mov    %rsp,%rbp
    3331:	48 89 7d f8          	mov    %rdi,-0x8(%rbp)
    3335:	48 89 75 f0          	mov    %rsi,-0x10(%rbp)
    3339:	90                   	nop
    333a:	5d                   	pop    %rbp
    333b:	c3                   	retq   

000000000000333c <_ZNKSt8__detail15_Hash_code_baseIiSt4pairIKiiENS_10_Select1stESt4hashIiENS_18_Mod_range_hashingENS_20_Default_ranged_hashELb0EE5_M_h1Ev>:
    333c:	f3 0f 1e fa          	endbr64 
    3340:	55                   	push   %rbp
    3341:	48 89 e5             	mov    %rsp,%rbp
    3344:	48 83 ec 10          	sub    $0x10,%rsp
    3348:	48 89 7d f8          	mov    %rdi,-0x8(%rbp)
    334c:	48 8b 45 f8          	mov    -0x8(%rbp),%rax
    3350:	48 89 c7             	mov    %rax,%rdi
    3353:	e8 ed 09 00 00       	callq  3d45 <_ZNSt8__detail21_Hashtable_ebo_helperILi1ESt4hashIiELb1EE7_S_cgetERKS3_>
    3358:	c9                   	leaveq 
    3359:	c3                   	retq   

000000000000335a <_ZNKSt8__detail15_Hash_code_baseIiSt4pairIKiiENS_10_Select1stESt4hashIiENS_18_Mod_range_hashingENS_20_Default_ranged_hashELb0EE15_M_bucket_indexERS2_mm>:
    335a:	f3 0f 1e fa          	endbr64 
    335e:	55                   	push   %rbp
    335f:	48 89 e5             	mov    %rsp,%rbp
    3362:	48 83 ec 20          	sub    $0x20,%rsp
    3366:	48 89 7d f8          	mov    %rdi,-0x8(%rbp)
    336a:	48 89 75 f0          	mov    %rsi,-0x10(%rbp)
    336e:	48 89 55 e8          	mov    %rdx,-0x18(%rbp)
    3372:	48 89 4d e0          	mov    %rcx,-0x20(%rbp)
    3376:	48 8b 45 f8          	mov    -0x8(%rbp),%rax
    337a:	48 89 c7             	mov    %rax,%rdi
    337d:	e8 d6 09 00 00       	callq  3d58 <_ZNKSt8__detail15_Hash_code_baseIiSt4pairIKiiENS_10_Select1stESt4hashIiENS_18_Mod_range_hashingENS_20_Default_ranged_hashELb0EE5_M_h2Ev>
    3382:	48 89 c1             	mov    %rax,%rcx
    3385:	48 8b 55 e0          	mov    -0x20(%rbp),%rdx
    3389:	48 8b 45 e8          	mov    -0x18(%rbp),%rax
    338d:	48 89 c6             	mov    %rax,%rsi
    3390:	48 89 cf             	mov    %rcx,%rdi
    3393:	e8 52 e2 ff ff       	callq  15ea <_ZNKSt8__detail18_Mod_range_hashingclEmm>
    3398:	c9                   	leaveq 
    3399:	c3                   	retq   

000000000000339a <_ZNKSt10_HashtableIiSt4pairIKiiESaIS2_ENSt8__detail10_Select1stESt8equal_toIiESt4hashIiENS4_18_Mod_range_hashingENS4_20_Default_ranged_hashENS4_20_Prime_rehash_policyENS4_17_Hashtable_traitsILb0ELb0ELb1EEEE19_M_find_before_nodeEmRS1_m>:
    339a:	f3 0f 1e fa          	endbr64 
    339e:	55                   	push   %rbp
    339f:	48 89 e5             	mov    %rsp,%rbp
    33a2:	48 83 ec 30          	sub    $0x30,%rsp
    33a6:	48 89 7d e8          	mov    %rdi,-0x18(%rbp)
    33aa:	48 89 75 e0          	mov    %rsi,-0x20(%rbp)
    33ae:	48 89 55 d8          	mov    %rdx,-0x28(%rbp)
    33b2:	48 89 4d d0          	mov    %rcx,-0x30(%rbp)
    33b6:	48 8b 45 e8          	mov    -0x18(%rbp),%rax
    33ba:	48 8b 00             	mov    (%rax),%rax
    33bd:	48 8b 55 e0          	mov    -0x20(%rbp),%rdx
    33c1:	48 c1 e2 03          	shl    $0x3,%rdx
    33c5:	48 01 d0             	add    %rdx,%rax
    33c8:	48 8b 00             	mov    (%rax),%rax
    33cb:	48 89 45 f0          	mov    %rax,-0x10(%rbp)
    33cf:	48 83 7d f0 00       	cmpq   $0x0,-0x10(%rbp)
    33d4:	75 0a                	jne    33e0 <_ZNKSt10_HashtableIiSt4pairIKiiESaIS2_ENSt8__detail10_Select1stESt8equal_toIiESt4hashIiENS4_18_Mod_range_hashingENS4_20_Default_ranged_hashENS4_20_Prime_rehash_policyENS4_17_Hashtable_traitsILb0ELb0ELb1EEEE19_M_find_before_nodeEmRS1_m+0x46>
    33d6:	b8 00 00 00 00       	mov    $0x0,%eax
    33db:	e9 8d 00 00 00       	jmpq   346d <_ZNKSt10_HashtableIiSt4pairIKiiESaIS2_ENSt8__detail10_Select1stESt8equal_toIiESt4hashIiENS4_18_Mod_range_hashingENS4_20_Default_ranged_hashENS4_20_Prime_rehash_policyENS4_17_Hashtable_traitsILb0ELb0ELb1EEEE19_M_find_before_nodeEmRS1_m+0xd3>
    33e0:	48 8b 45 f0          	mov    -0x10(%rbp),%rax
    33e4:	48 8b 00             	mov    (%rax),%rax
    33e7:	48 89 45 f8          	mov    %rax,-0x8(%rbp)
    33eb:	48 8b 4d f8          	mov    -0x8(%rbp),%rcx
    33ef:	48 8b 55 d0          	mov    -0x30(%rbp),%rdx
    33f3:	48 8b 75 d8          	mov    -0x28(%rbp),%rsi
    33f7:	48 8b 45 e8          	mov    -0x18(%rbp),%rax
    33fb:	48 89 c7             	mov    %rax,%rdi
    33fe:	e8 73 09 00 00       	callq  3d76 <_ZNKSt8__detail15_Hashtable_baseIiSt4pairIKiiENS_10_Select1stESt8equal_toIiESt4hashIiENS_18_Mod_range_hashingENS_20_Default_ranged_hashENS_17_Hashtable_traitsILb0ELb0ELb1EEEE9_M_equalsERS2_mPNS_10_Hash_nodeIS3_Lb0EEE>
    3403:	84 c0                	test   %al,%al
    3405:	74 06                	je     340d <_ZNKSt10_HashtableIiSt4pairIKiiESaIS2_ENSt8__detail10_Select1stESt8equal_toIiESt4hashIiENS4_18_Mod_range_hashingENS4_20_Default_ranged_hashENS4_20_Prime_rehash_policyENS4_17_Hashtable_traitsILb0ELb0ELb1EEEE19_M_find_before_nodeEmRS1_m+0x73>
    3407:	48 8b 45 f0          	mov    -0x10(%rbp),%rax
    340b:	eb 60                	jmp    346d <_ZNKSt10_HashtableIiSt4pairIKiiESaIS2_ENSt8__detail10_Select1stESt8equal_toIiESt4hashIiENS4_18_Mod_range_hashingENS4_20_Default_ranged_hashENS4_20_Prime_rehash_policyENS4_17_Hashtable_traitsILb0ELb0ELb1EEEE19_M_find_before_nodeEmRS1_m+0xd3>
    340d:	48 8b 45 f8          	mov    -0x8(%rbp),%rax
    3411:	48 8b 00             	mov    (%rax),%rax
    3414:	48 85 c0             	test   %rax,%rax
    3417:	74 24                	je     343d <_ZNKSt10_HashtableIiSt4pairIKiiESaIS2_ENSt8__detail10_Select1stESt8equal_toIiESt4hashIiENS4_18_Mod_range_hashingENS4_20_Default_ranged_hashENS4_20_Prime_rehash_policyENS4_17_Hashtable_traitsILb0ELb0ELb1EEEE19_M_find_before_nodeEmRS1_m+0xa3>
    3419:	48 8b 45 f8          	mov    -0x8(%rbp),%rax
    341d:	48 89 c7             	mov    %rax,%rdi
    3420:	e8 91 fd ff ff       	callq  31b6 <_ZNKSt8__detail10_Hash_nodeISt4pairIKiiELb0EE7_M_nextEv>
    3425:	48 89 c2             	mov    %rax,%rdx
    3428:	48 8b 45 e8          	mov    -0x18(%rbp),%rax
    342c:	48 89 d6             	mov    %rdx,%rsi
    342f:	48 89 c7             	mov    %rax,%rdi
    3432:	e8 9f 09 00 00       	callq  3dd6 <_ZNKSt10_HashtableIiSt4pairIKiiESaIS2_ENSt8__detail10_Select1stESt8equal_toIiESt4hashIiENS4_18_Mod_range_hashingENS4_20_Default_ranged_hashENS4_20_Prime_rehash_policyENS4_17_Hashtable_traitsILb0ELb0ELb1EEEE15_M_bucket_indexEPNS4_10_Hash_nodeIS2_Lb0EEE>
    3437:	48 39 45 e0          	cmp    %rax,-0x20(%rbp)
    343b:	74 07                	je     3444 <_ZNKSt10_HashtableIiSt4pairIKiiESaIS2_ENSt8__detail10_Select1stESt8equal_toIiESt4hashIiENS4_18_Mod_range_hashingENS4_20_Default_ranged_hashENS4_20_Prime_rehash_policyENS4_17_Hashtable_traitsILb0ELb0ELb1EEEE19_M_find_before_nodeEmRS1_m+0xaa>
    343d:	b8 01 00 00 00       	mov    $0x1,%eax
    3442:	eb 05                	jmp    3449 <_ZNKSt10_HashtableIiSt4pairIKiiESaIS2_ENSt8__detail10_Select1stESt8equal_toIiESt4hashIiENS4_18_Mod_range_hashingENS4_20_Default_ranged_hashENS4_20_Prime_rehash_policyENS4_17_Hashtable_traitsILb0ELb0ELb1EEEE19_M_find_before_nodeEmRS1_m+0xaf>
    3444:	b8 00 00 00 00       	mov    $0x0,%eax
    3449:	84 c0                	test   %al,%al
    344b:	75 1a                	jne    3467 <_ZNKSt10_HashtableIiSt4pairIKiiESaIS2_ENSt8__detail10_Select1stESt8equal_toIiESt4hashIiENS4_18_Mod_range_hashingENS4_20_Default_ranged_hashENS4_20_Prime_rehash_policyENS4_17_Hashtable_traitsILb0ELb0ELb1EEEE19_M_find_before_nodeEmRS1_m+0xcd>
    344d:	48 8b 45 f8          	mov    -0x8(%rbp),%rax
    3451:	48 89 45 f0          	mov    %rax,-0x10(%rbp)
    3455:	48 8b 45 f8          	mov    -0x8(%rbp),%rax
    3459:	48 89 c7             	mov    %rax,%rdi
    345c:	e8 55 fd ff ff       	callq  31b6 <_ZNKSt8__detail10_Hash_nodeISt4pairIKiiELb0EE7_M_nextEv>
    3461:	48 89 45 f8          	mov    %rax,-0x8(%rbp)
    3465:	eb 84                	jmp    33eb <_ZNKSt10_HashtableIiSt4pairIKiiESaIS2_ENSt8__detail10_Select1stESt8equal_toIiESt4hashIiENS4_18_Mod_range_hashingENS4_20_Default_ranged_hashENS4_20_Prime_rehash_policyENS4_17_Hashtable_traitsILb0ELb0ELb1EEEE19_M_find_before_nodeEmRS1_m+0x51>
    3467:	90                   	nop
    3468:	b8 00 00 00 00       	mov    $0x0,%eax
    346d:	c9                   	leaveq 
    346e:	c3                   	retq   
    346f:	90                   	nop

0000000000003470 <_ZNSt8__detail19_Node_iterator_baseISt4pairIKiiELb0EEC1EPNS_10_Hash_nodeIS3_Lb0EEE>:
    3470:	f3 0f 1e fa          	endbr64 
    3474:	55                   	push   %rbp
    3475:	48 89 e5             	mov    %rsp,%rbp
    3478:	48 89 7d f8          	mov    %rdi,-0x8(%rbp)
    347c:	48 89 75 f0          	mov    %rsi,-0x10(%rbp)
    3480:	48 8b 45 f8          	mov    -0x8(%rbp),%rax
    3484:	48 8b 55 f0          	mov    -0x10(%rbp),%rdx
    3488:	48 89 10             	mov    %rdx,(%rax)
    348b:	90                   	nop
    348c:	5d                   	pop    %rbp
    348d:	c3                   	retq   

000000000000348e <_ZNSt5tupleIJOiEEC1IJiELb1EEEDpOT_>:
    348e:	f3 0f 1e fa          	endbr64 
    3492:	55                   	push   %rbp
    3493:	48 89 e5             	mov    %rsp,%rbp
    3496:	53                   	push   %rbx
    3497:	48 83 ec 18          	sub    $0x18,%rsp
    349b:	48 89 7d e8          	mov    %rdi,-0x18(%rbp)
    349f:	48 89 75 e0          	mov    %rsi,-0x20(%rbp)
    34a3:	48 8b 5d e8          	mov    -0x18(%rbp),%rbx
    34a7:	48 8b 45 e0          	mov    -0x20(%rbp),%rax
    34ab:	48 89 c7             	mov    %rax,%rdi
    34ae:	e8 78 e5 ff ff       	callq  1a2b <_ZSt7forwardIiEOT_RNSt16remove_referenceIS0_E4typeE>
    34b3:	48 89 c6             	mov    %rax,%rsi
    34b6:	48 89 df             	mov    %rbx,%rdi
    34b9:	e8 4a 09 00 00       	callq  3e08 <_ZNSt11_Tuple_implILm0EJOiEEC1IiEEOT_>
    34be:	90                   	nop
    34bf:	48 83 c4 18          	add    $0x18,%rsp
    34c3:	5b                   	pop    %rbx
    34c4:	5d                   	pop    %rbp
    34c5:	c3                   	retq   

00000000000034c6 <_ZNSt11_Tuple_implILm0EJOiEEC1EOS1_>:
    34c6:	f3 0f 1e fa          	endbr64 
    34ca:	55                   	push   %rbp
    34cb:	48 89 e5             	mov    %rsp,%rbp
    34ce:	53                   	push   %rbx
    34cf:	48 83 ec 18          	sub    $0x18,%rsp
    34d3:	48 89 7d e8          	mov    %rdi,-0x18(%rbp)
    34d7:	48 89 75 e0          	mov    %rsi,-0x20(%rbp)
    34db:	48 8b 5d e8          	mov    -0x18(%rbp),%rbx
    34df:	48 8b 45 e0          	mov    -0x20(%rbp),%rax
    34e3:	48 89 c7             	mov    %rax,%rdi
    34e6:	e8 55 09 00 00       	callq  3e40 <_ZNSt11_Tuple_implILm0EJOiEE7_M_headERS1_>
    34eb:	48 89 c7             	mov    %rax,%rdi
    34ee:	e8 6b 09 00 00       	callq  3e5e <_ZSt7forwardIOiEOT_RNSt16remove_referenceIS1_E4typeE>
    34f3:	48 89 c6             	mov    %rax,%rsi
    34f6:	48 89 df             	mov    %rbx,%rdi
    34f9:	e8 72 09 00 00       	callq  3e70 <_ZNSt10_Head_baseILm0EOiLb0EEC1IiEEOT_>
    34fe:	90                   	nop
    34ff:	48 83 c4 18          	add    $0x18,%rsp
    3503:	5b                   	pop    %rbx
    3504:	5d                   	pop    %rbp
    3505:	c3                   	retq   

0000000000003506 <_ZNSt8__detail16_Hashtable_allocISaINS_10_Hash_nodeISt4pairIKiiELb0EEEEE17_M_node_allocatorEv>:
    3506:	f3 0f 1e fa          	endbr64 
    350a:	55                   	push   %rbp
    350b:	48 89 e5             	mov    %rsp,%rbp
    350e:	48 83 ec 10          	sub    $0x10,%rsp
    3512:	48 89 7d f8          	mov    %rdi,-0x8(%rbp)
    3516:	48 8b 45 f8          	mov    -0x8(%rbp),%rax
    351a:	48 89 c7             	mov    %rax,%rdi
    351d:	e8 78 09 00 00       	callq  3e9a <_ZNSt8__detail21_Hashtable_ebo_helperILi0ESaINS_10_Hash_nodeISt4pairIKiiELb0EEEELb1EE6_S_getERS7_>
    3522:	c9                   	leaveq 
    3523:	c3                   	retq   

0000000000003524 <_ZNSt16allocator_traitsISaINSt8__detail10_Hash_nodeISt4pairIKiiELb0EEEEE8allocateERS6_m>:
    3524:	f3 0f 1e fa          	endbr64 
    3528:	55                   	push   %rbp
    3529:	48 89 e5             	mov    %rsp,%rbp
    352c:	48 83 ec 10          	sub    $0x10,%rsp
    3530:	48 89 7d f8          	mov    %rdi,-0x8(%rbp)
    3534:	48 89 75 f0          	mov    %rsi,-0x10(%rbp)
    3538:	48 8b 4d f0          	mov    -0x10(%rbp),%rcx
    353c:	48 8b 45 f8          	mov    -0x8(%rbp),%rax
    3540:	ba 00 00 00 00       	mov    $0x0,%edx
    3545:	48 89 ce             	mov    %rcx,%rsi
    3548:	48 89 c7             	mov    %rax,%rdi
    354b:	e8 5c 09 00 00       	callq  3eac <_ZN9__gnu_cxx13new_allocatorINSt8__detail10_Hash_nodeISt4pairIKiiELb0EEEE8allocateEmPKv>
    3550:	c9                   	leaveq 
    3551:	c3                   	retq   

0000000000003552 <_ZSt12__to_addressINSt8__detail10_Hash_nodeISt4pairIKiiELb0EEEEPT_S7_>:
    3552:	f3 0f 1e fa          	endbr64 
    3556:	55                   	push   %rbp
    3557:	48 89 e5             	mov    %rsp,%rbp
    355a:	48 89 7d f8          	mov    %rdi,-0x8(%rbp)
    355e:	48 8b 45 f8          	mov    -0x8(%rbp),%rax
    3562:	5d                   	pop    %rbp
    3563:	c3                   	retq   

0000000000003564 <_ZNSt8__detail21_Hash_node_value_baseISt4pairIKiiEE9_M_valptrEv>:
    3564:	f3 0f 1e fa          	endbr64 
    3568:	55                   	push   %rbp
    3569:	48 89 e5             	mov    %rsp,%rbp
    356c:	48 83 ec 10          	sub    $0x10,%rsp
    3570:	48 89 7d f8          	mov    %rdi,-0x8(%rbp)
    3574:	48 8b 45 f8          	mov    -0x8(%rbp),%rax
    3578:	48 83 c0 08          	add    $0x8,%rax
    357c:	48 89 c7             	mov    %rax,%rdi
    357f:	e8 6e 09 00 00       	callq  3ef2 <_ZN9__gnu_cxx16__aligned_bufferISt4pairIKiiEE6_M_ptrEv>
    3584:	c9                   	leaveq 
    3585:	c3                   	retq   

0000000000003586 <_ZSt7forwardIRKSt21piecewise_construct_tEOT_RNSt16remove_referenceIS3_E4typeE>:
    3586:	f3 0f 1e fa          	endbr64 
    358a:	55                   	push   %rbp
    358b:	48 89 e5             	mov    %rsp,%rbp
    358e:	48 89 7d f8          	mov    %rdi,-0x8(%rbp)
    3592:	48 8b 45 f8          	mov    -0x8(%rbp),%rax
    3596:	5d                   	pop    %rbp
    3597:	c3                   	retq   

0000000000003598 <_ZSt7forwardISt5tupleIJOiEEEOT_RNSt16remove_referenceIS3_E4typeE>:
    3598:	f3 0f 1e fa          	endbr64 
    359c:	55                   	push   %rbp
    359d:	48 89 e5             	mov    %rsp,%rbp
    35a0:	48 89 7d f8          	mov    %rdi,-0x8(%rbp)
    35a4:	48 8b 45 f8          	mov    -0x8(%rbp),%rax
    35a8:	5d                   	pop    %rbp
    35a9:	c3                   	retq   

00000000000035aa <_ZSt7forwardISt5tupleIJEEEOT_RNSt16remove_referenceIS2_E4typeE>:
    35aa:	f3 0f 1e fa          	endbr64 
    35ae:	55                   	push   %rbp
    35af:	48 89 e5             	mov    %rsp,%rbp
    35b2:	48 89 7d f8          	mov    %rdi,-0x8(%rbp)
    35b6:	48 8b 45 f8          	mov    -0x8(%rbp),%rax
    35ba:	5d                   	pop    %rbp
    35bb:	c3                   	retq   

00000000000035bc <_ZNSt16allocator_traitsISaINSt8__detail10_Hash_nodeISt4pairIKiiELb0EEEEE9constructIS4_JRKSt21piecewise_construct_tSt5tupleIJOiEESC_IJEEEEEvRS6_PT_DpOT0_>:
    35bc:	f3 0f 1e fa          	endbr64 
    35c0:	55                   	push   %rbp
    35c1:	48 89 e5             	mov    %rsp,%rbp
    35c4:	41 54                	push   %r12
    35c6:	53                   	push   %rbx
    35c7:	48 83 ec 30          	sub    $0x30,%rsp
    35cb:	48 89 7d e8          	mov    %rdi,-0x18(%rbp)
    35cf:	48 89 75 e0          	mov    %rsi,-0x20(%rbp)
    35d3:	48 89 55 d8          	mov    %rdx,-0x28(%rbp)
    35d7:	48 89 4d d0          	mov    %rcx,-0x30(%rbp)
    35db:	4c 89 45 c8          	mov    %r8,-0x38(%rbp)
    35df:	48 8b 45 c8          	mov    -0x38(%rbp),%rax
    35e3:	48 89 c7             	mov    %rax,%rdi
    35e6:	e8 bf ff ff ff       	callq  35aa <_ZSt7forwardISt5tupleIJEEEOT_RNSt16remove_referenceIS2_E4typeE>
    35eb:	49 89 c4             	mov    %rax,%r12
    35ee:	48 8b 45 d0          	mov    -0x30(%rbp),%rax
    35f2:	48 89 c7             	mov    %rax,%rdi
    35f5:	e8 9e ff ff ff       	callq  3598 <_ZSt7forwardISt5tupleIJOiEEEOT_RNSt16remove_referenceIS3_E4typeE>
    35fa:	48 89 c3             	mov    %rax,%rbx
    35fd:	48 8b 45 d8          	mov    -0x28(%rbp),%rax
    3601:	48 89 c7             	mov    %rax,%rdi
    3604:	e8 7d ff ff ff       	callq  3586 <_ZSt7forwardIRKSt21piecewise_construct_tEOT_RNSt16remove_referenceIS3_E4typeE>
    3609:	48 89 c2             	mov    %rax,%rdx
    360c:	48 8b 75 e0          	mov    -0x20(%rbp),%rsi
    3610:	48 8b 45 e8          	mov    -0x18(%rbp),%rax
    3614:	4d 89 e0             	mov    %r12,%r8
    3617:	48 89 d9             	mov    %rbx,%rcx
    361a:	48 89 c7             	mov    %rax,%rdi
    361d:	e8 ee 08 00 00       	callq  3f10 <_ZN9__gnu_cxx13new_allocatorINSt8__detail10_Hash_nodeISt4pairIKiiELb0EEEE9constructIS5_JRKSt21piecewise_construct_tSt5tupleIJOiEESC_IJEEEEEvPT_DpOT0_>
    3622:	90                   	nop
    3623:	48 83 c4 30          	add    $0x30,%rsp
    3627:	5b                   	pop    %rbx
    3628:	41 5c                	pop    %r12
    362a:	5d                   	pop    %rbp
    362b:	c3                   	retq   

000000000000362c <_ZNSt16allocator_traitsISaINSt8__detail10_Hash_nodeISt4pairIKiiELb0EEEEE10deallocateERS6_PS5_m>:
    362c:	f3 0f 1e fa          	endbr64 
    3630:	55                   	push   %rbp
    3631:	48 89 e5             	mov    %rsp,%rbp
    3634:	48 83 ec 20          	sub    $0x20,%rsp
    3638:	48 89 7d f8          	mov    %rdi,-0x8(%rbp)
    363c:	48 89 75 f0          	mov    %rsi,-0x10(%rbp)
    3640:	48 89 55 e8          	mov    %rdx,-0x18(%rbp)
    3644:	48 8b 55 e8          	mov    -0x18(%rbp),%rdx
    3648:	48 8b 4d f0          	mov    -0x10(%rbp),%rcx
    364c:	48 8b 45 f8          	mov    -0x8(%rbp),%rax
    3650:	48 89 ce             	mov    %rcx,%rsi
    3653:	48 89 c7             	mov    %rax,%rdi
    3656:	e8 81 09 00 00       	callq  3fdc <_ZN9__gnu_cxx13new_allocatorINSt8__detail10_Hash_nodeISt4pairIKiiELb0EEEE10deallocateEPS6_m>
    365b:	90                   	nop
    365c:	c9                   	leaveq 
    365d:	c3                   	retq   

000000000000365e <_ZNSt10_HashtableIiSt4pairIKiiESaIS2_ENSt8__detail10_Select1stESt8equal_toIiESt4hashIiENS4_18_Mod_range_hashingENS4_20_Default_ranged_hashENS4_20_Prime_rehash_policyENS4_17_Hashtable_traitsILb0ELb0ELb1EEEE9_M_rehashEmRKm>:
    365e:	f3 0f 1e fa          	endbr64 
    3662:	55                   	push   %rbp
    3663:	48 89 e5             	mov    %rsp,%rbp
    3666:	53                   	push   %rbx
    3667:	48 83 ec 38          	sub    $0x38,%rsp
    366b:	48 89 7d d8          	mov    %rdi,-0x28(%rbp)
    366f:	48 89 75 d0          	mov    %rsi,-0x30(%rbp)
    3673:	48 89 55 c8          	mov    %rdx,-0x38(%rbp)
    3677:	64 48 8b 04 25 28 00 	mov    %fs:0x28,%rax
    367e:	00 00 
    3680:	48 89 45 e8          	mov    %rax,-0x18(%rbp)
    3684:	31 c0                	xor    %eax,%eax
    3686:	48 8b 55 d0          	mov    -0x30(%rbp),%rdx
    368a:	48 8b 45 d8          	mov    -0x28(%rbp),%rax
    368e:	48 89 d6             	mov    %rdx,%rsi
    3691:	48 89 c7             	mov    %rax,%rdi
    3694:	e8 6b 09 00 00       	callq  4004 <_ZNSt10_HashtableIiSt4pairIKiiESaIS2_ENSt8__detail10_Select1stESt8equal_toIiESt4hashIiENS4_18_Mod_range_hashingENS4_20_Default_ranged_hashENS4_20_Prime_rehash_policyENS4_17_Hashtable_traitsILb0ELb0ELb1EEEE13_M_rehash_auxEmSt17integral_constantIbLb1EE>
    3699:	eb 42                	jmp    36dd <_ZNSt10_HashtableIiSt4pairIKiiESaIS2_ENSt8__detail10_Select1stESt8equal_toIiESt4hashIiENS4_18_Mod_range_hashingENS4_20_Default_ranged_hashENS4_20_Prime_rehash_policyENS4_17_Hashtable_traitsILb0ELb0ELb1EEEE9_M_rehashEmRKm+0x7f>
    369b:	f3 0f 1e fa          	endbr64 
    369f:	48 89 c7             	mov    %rax,%rdi
    36a2:	e8 b9 da ff ff       	callq  1160 <__cxa_begin_catch@plt>
    36a7:	48 8b 45 d8          	mov    -0x28(%rbp),%rax
    36ab:	48 8d 50 20          	lea    0x20(%rax),%rdx
    36af:	48 8b 45 c8          	mov    -0x38(%rbp),%rax
    36b3:	48 8b 00             	mov    (%rax),%rax
    36b6:	48 89 c6             	mov    %rax,%rsi
    36b9:	48 89 d7             	mov    %rdx,%rdi
    36bc:	e8 93 df ff ff       	callq  1654 <_ZNSt8__detail20_Prime_rehash_policy8_M_resetEm>
    36c1:	e8 3a db ff ff       	callq  1200 <__cxa_rethrow@plt>
    36c6:	f3 0f 1e fa          	endbr64 
    36ca:	48 89 c3             	mov    %rax,%rbx
    36cd:	e8 5e db ff ff       	callq  1230 <__cxa_end_catch@plt>
    36d2:	48 89 d8             	mov    %rbx,%rax
    36d5:	48 89 c7             	mov    %rax,%rdi
    36d8:	e8 73 db ff ff       	callq  1250 <_Unwind_Resume@plt>
    36dd:	48 8b 45 e8          	mov    -0x18(%rbp),%rax
    36e1:	64 48 33 04 25 28 00 	xor    %fs:0x28,%rax
    36e8:	00 00 
    36ea:	74 05                	je     36f1 <_ZNSt10_HashtableIiSt4pairIKiiESaIS2_ENSt8__detail10_Select1stESt8equal_toIiESt4hashIiENS4_18_Mod_range_hashingENS4_20_Default_ranged_hashENS4_20_Prime_rehash_policyENS4_17_Hashtable_traitsILb0ELb0ELb1EEEE9_M_rehashEmRKm+0x93>
    36ec:	e8 ef da ff ff       	callq  11e0 <__stack_chk_fail@plt>
    36f1:	48 83 c4 38          	add    $0x38,%rsp
    36f5:	5b                   	pop    %rbx
    36f6:	5d                   	pop    %rbp
    36f7:	c3                   	retq   

00000000000036f8 <_ZNSt8__detail15_Hash_code_baseIiSt4pairIKiiENS_10_Select1stESt4hashIiENS_18_Mod_range_hashingENS_20_Default_ranged_hashELb0EE10_M_extractEv>:
    36f8:	f3 0f 1e fa          	endbr64 
    36fc:	55                   	push   %rbp
    36fd:	48 89 e5             	mov    %rsp,%rbp
    3700:	48 83 ec 10          	sub    $0x10,%rsp
    3704:	48 89 7d f8          	mov    %rdi,-0x8(%rbp)
    3708:	48 8b 45 f8          	mov    -0x8(%rbp),%rax
    370c:	48 89 c7             	mov    %rax,%rdi
    370f:	e8 69 0a 00 00       	callq  417d <_ZNSt8__detail21_Hashtable_ebo_helperILi0ENS_10_Select1stELb1EE6_S_getERS2_>
    3714:	c9                   	leaveq 
    3715:	c3                   	retq   

0000000000003716 <_ZNKSt8__detail10_Select1stclIRSt4pairIKiiEEEDTcl3getILi0EEcl7forwardIT_Efp_EEEOS6_>:
    3716:	f3 0f 1e fa          	endbr64 
    371a:	55                   	push   %rbp
    371b:	48 89 e5             	mov    %rsp,%rbp
    371e:	48 83 ec 10          	sub    $0x10,%rsp
    3722:	48 89 7d f8          	mov    %rdi,-0x8(%rbp)
    3726:	48 89 75 f0          	mov    %rsi,-0x10(%rbp)
    372a:	48 8b 45 f0          	mov    -0x10(%rbp),%rax
    372e:	48 89 c7             	mov    %rax,%rdi
    3731:	e8 59 0a 00 00       	callq  418f <_ZSt7forwardIRSt4pairIKiiEEOT_RNSt16remove_referenceIS4_E4typeE>
    3736:	48 89 c7             	mov    %rax,%rdi
    3739:	e8 63 0a 00 00       	callq  41a1 <_ZSt3getILm0EKiiERNSt13tuple_elementIXT_ESt4pairIT0_T1_EE4typeERS5_>
    373e:	c9                   	leaveq 
    373f:	c3                   	retq   

0000000000003740 <_ZNKSt8__detail15_Hash_code_baseIiSt4pairIKiiENS_10_Select1stESt4hashIiENS_18_Mod_range_hashingENS_20_Default_ranged_hashELb0EE13_M_store_codeEPNS_10_Hash_nodeIS3_Lb0EEEm>:
    3740:	f3 0f 1e fa          	endbr64 
    3744:	55                   	push   %rbp
    3745:	48 89 e5             	mov    %rsp,%rbp
    3748:	48 89 7d f8          	mov    %rdi,-0x8(%rbp)
    374c:	48 89 75 f0          	mov    %rsi,-0x10(%rbp)
    3750:	48 89 55 e8          	mov    %rdx,-0x18(%rbp)
    3754:	90                   	nop
    3755:	5d                   	pop    %rbp
    3756:	c3                   	retq   
    3757:	90                   	nop

0000000000003758 <_ZNSt10_HashtableIiSt4pairIKiiESaIS2_ENSt8__detail10_Select1stESt8equal_toIiESt4hashIiENS4_18_Mod_range_hashingENS4_20_Default_ranged_hashENS4_20_Prime_rehash_policyENS4_17_Hashtable_traitsILb0ELb0ELb1EEEE22_M_insert_bucket_beginEmPNS4_10_Hash_nodeIS2_Lb0EEE>:
    3758:	f3 0f 1e fa          	endbr64 
    375c:	55                   	push   %rbp
    375d:	48 89 e5             	mov    %rsp,%rbp
    3760:	53                   	push   %rbx
    3761:	48 83 ec 28          	sub    $0x28,%rsp
    3765:	48 89 7d e8          	mov    %rdi,-0x18(%rbp)
    3769:	48 89 75 e0          	mov    %rsi,-0x20(%rbp)
    376d:	48 89 55 d8          	mov    %rdx,-0x28(%rbp)
    3771:	48 8b 45 e8          	mov    -0x18(%rbp),%rax
    3775:	48 8b 00             	mov    (%rax),%rax
    3778:	48 8b 55 e0          	mov    -0x20(%rbp),%rdx
    377c:	48 c1 e2 03          	shl    $0x3,%rdx
    3780:	48 01 d0             	add    %rdx,%rax
    3783:	48 8b 00             	mov    (%rax),%rax
    3786:	48 85 c0             	test   %rax,%rax
    3789:	74 3d                	je     37c8 <_ZNSt10_HashtableIiSt4pairIKiiESaIS2_ENSt8__detail10_Select1stESt8equal_toIiESt4hashIiENS4_18_Mod_range_hashingENS4_20_Default_ranged_hashENS4_20_Prime_rehash_policyENS4_17_Hashtable_traitsILb0ELb0ELb1EEEE22_M_insert_bucket_beginEmPNS4_10_Hash_nodeIS2_Lb0EEE+0x70>
    378b:	48 8b 45 e8          	mov    -0x18(%rbp),%rax
    378f:	48 8b 00             	mov    (%rax),%rax
    3792:	48 8b 55 e0          	mov    -0x20(%rbp),%rdx
    3796:	48 c1 e2 03          	shl    $0x3,%rdx
    379a:	48 01 d0             	add    %rdx,%rax
    379d:	48 8b 00             	mov    (%rax),%rax
    37a0:	48 8b 10             	mov    (%rax),%rdx
    37a3:	48 8b 45 d8          	mov    -0x28(%rbp),%rax
    37a7:	48 89 10             	mov    %rdx,(%rax)
    37aa:	48 8b 45 e8          	mov    -0x18(%rbp),%rax
    37ae:	48 8b 00             	mov    (%rax),%rax
    37b1:	48 8b 55 e0          	mov    -0x20(%rbp),%rdx
    37b5:	48 c1 e2 03          	shl    $0x3,%rdx
    37b9:	48 01 d0             	add    %rdx,%rax
    37bc:	48 8b 00             	mov    (%rax),%rax
    37bf:	48 8b 55 d8          	mov    -0x28(%rbp),%rdx
    37c3:	48 89 10             	mov    %rdx,(%rax)
    37c6:	eb 78                	jmp    3840 <_ZNSt10_HashtableIiSt4pairIKiiESaIS2_ENSt8__detail10_Select1stESt8equal_toIiESt4hashIiENS4_18_Mod_range_hashingENS4_20_Default_ranged_hashENS4_20_Prime_rehash_policyENS4_17_Hashtable_traitsILb0ELb0ELb1EEEE22_M_insert_bucket_beginEmPNS4_10_Hash_nodeIS2_Lb0EEE+0xe8>
    37c8:	48 8b 45 e8          	mov    -0x18(%rbp),%rax
    37cc:	48 8b 50 10          	mov    0x10(%rax),%rdx
    37d0:	48 8b 45 d8          	mov    -0x28(%rbp),%rax
    37d4:	48 89 10             	mov    %rdx,(%rax)
    37d7:	48 8b 45 e8          	mov    -0x18(%rbp),%rax
    37db:	48 8b 55 d8          	mov    -0x28(%rbp),%rdx
    37df:	48 89 50 10          	mov    %rdx,0x10(%rax)
    37e3:	48 8b 45 d8          	mov    -0x28(%rbp),%rax
    37e7:	48 8b 00             	mov    (%rax),%rax
    37ea:	48 85 c0             	test   %rax,%rax
    37ed:	74 34                	je     3823 <_ZNSt10_HashtableIiSt4pairIKiiESaIS2_ENSt8__detail10_Select1stESt8equal_toIiESt4hashIiENS4_18_Mod_range_hashingENS4_20_Default_ranged_hashENS4_20_Prime_rehash_policyENS4_17_Hashtable_traitsILb0ELb0ELb1EEEE22_M_insert_bucket_beginEmPNS4_10_Hash_nodeIS2_Lb0EEE+0xcb>
    37ef:	48 8b 45 e8          	mov    -0x18(%rbp),%rax
    37f3:	48 8b 18             	mov    (%rax),%rbx
    37f6:	48 8b 45 d8          	mov    -0x28(%rbp),%rax
    37fa:	48 89 c7             	mov    %rax,%rdi
    37fd:	e8 b4 f9 ff ff       	callq  31b6 <_ZNKSt8__detail10_Hash_nodeISt4pairIKiiELb0EE7_M_nextEv>
    3802:	48 89 c2             	mov    %rax,%rdx
    3805:	48 8b 45 e8          	mov    -0x18(%rbp),%rax
    3809:	48 89 d6             	mov    %rdx,%rsi
    380c:	48 89 c7             	mov    %rax,%rdi
    380f:	e8 c2 05 00 00       	callq  3dd6 <_ZNKSt10_HashtableIiSt4pairIKiiESaIS2_ENSt8__detail10_Select1stESt8equal_toIiESt4hashIiENS4_18_Mod_range_hashingENS4_20_Default_ranged_hashENS4_20_Prime_rehash_policyENS4_17_Hashtable_traitsILb0ELb0ELb1EEEE15_M_bucket_indexEPNS4_10_Hash_nodeIS2_Lb0EEE>
    3814:	48 c1 e0 03          	shl    $0x3,%rax
    3818:	48 8d 14 03          	lea    (%rbx,%rax,1),%rdx
    381c:	48 8b 45 d8          	mov    -0x28(%rbp),%rax
    3820:	48 89 02             	mov    %rax,(%rdx)
    3823:	48 8b 45 e8          	mov    -0x18(%rbp),%rax
    3827:	48 8b 00             	mov    (%rax),%rax
    382a:	48 8b 55 e0          	mov    -0x20(%rbp),%rdx
    382e:	48 c1 e2 03          	shl    $0x3,%rdx
    3832:	48 01 d0             	add    %rdx,%rax
    3835:	48 8b 55 e8          	mov    -0x18(%rbp),%rdx
    3839:	48 83 c2 10          	add    $0x10,%rdx
    383d:	48 89 10             	mov    %rdx,(%rax)
    3840:	90                   	nop
    3841:	48 83 c4 28          	add    $0x28,%rsp
    3845:	5b                   	pop    %rbx
    3846:	5d                   	pop    %rbp
    3847:	c3                   	retq   

0000000000003848 <_ZNSt11_Tuple_implILm0EJRKiEEC1ES1_>:
    3848:	f3 0f 1e fa          	endbr64 
    384c:	55                   	push   %rbp
    384d:	48 89 e5             	mov    %rsp,%rbp
    3850:	48 83 ec 10          	sub    $0x10,%rsp
    3854:	48 89 7d f8          	mov    %rdi,-0x8(%rbp)
    3858:	48 89 75 f0          	mov    %rsi,-0x10(%rbp)
    385c:	48 8b 45 f8          	mov    -0x8(%rbp),%rax
    3860:	48 8b 55 f0          	mov    -0x10(%rbp),%rdx
    3864:	48 89 d6             	mov    %rdx,%rsi
    3867:	48 89 c7             	mov    %rax,%rdi
    386a:	e8 51 09 00 00       	callq  41c0 <_ZNSt10_Head_baseILm0ERKiLb0EEC1ES1_>
    386f:	90                   	nop
    3870:	c9                   	leaveq 
    3871:	c3                   	retq   

0000000000003872 <_ZSt7forwardISt5tupleIJRKiEEEOT_RNSt16remove_referenceIS4_E4typeE>:
    3872:	f3 0f 1e fa          	endbr64 
    3876:	55                   	push   %rbp
    3877:	48 89 e5             	mov    %rsp,%rbp
    387a:	48 89 7d f8          	mov    %rdi,-0x8(%rbp)
    387e:	48 8b 45 f8          	mov    -0x8(%rbp),%rax
    3882:	5d                   	pop    %rbp
    3883:	c3                   	retq   

0000000000003884 <_ZNSt16allocator_traitsISaINSt8__detail10_Hash_nodeISt4pairIKiiELb0EEEEE9constructIS4_JRKSt21piecewise_construct_tSt5tupleIJRS3_EESC_IJEEEEEvRS6_PT_DpOT0_>:
    3884:	f3 0f 1e fa          	endbr64 
    3888:	55                   	push   %rbp
    3889:	48 89 e5             	mov    %rsp,%rbp
    388c:	41 54                	push   %r12
    388e:	53                   	push   %rbx
    388f:	48 83 ec 30          	sub    $0x30,%rsp
    3893:	48 89 7d e8          	mov    %rdi,-0x18(%rbp)
    3897:	48 89 75 e0          	mov    %rsi,-0x20(%rbp)
    389b:	48 89 55 d8          	mov    %rdx,-0x28(%rbp)
    389f:	48 89 4d d0          	mov    %rcx,-0x30(%rbp)
    38a3:	4c 89 45 c8          	mov    %r8,-0x38(%rbp)
    38a7:	48 8b 45 c8          	mov    -0x38(%rbp),%rax
    38ab:	48 89 c7             	mov    %rax,%rdi
    38ae:	e8 f7 fc ff ff       	callq  35aa <_ZSt7forwardISt5tupleIJEEEOT_RNSt16remove_referenceIS2_E4typeE>
    38b3:	49 89 c4             	mov    %rax,%r12
    38b6:	48 8b 45 d0          	mov    -0x30(%rbp),%rax
    38ba:	48 89 c7             	mov    %rax,%rdi
    38bd:	e8 b0 ff ff ff       	callq  3872 <_ZSt7forwardISt5tupleIJRKiEEEOT_RNSt16remove_referenceIS4_E4typeE>
    38c2:	48 89 c3             	mov    %rax,%rbx
    38c5:	48 8b 45 d8          	mov    -0x28(%rbp),%rax
    38c9:	48 89 c7             	mov    %rax,%rdi
    38cc:	e8 b5 fc ff ff       	callq  3586 <_ZSt7forwardIRKSt21piecewise_construct_tEOT_RNSt16remove_referenceIS3_E4typeE>
    38d1:	48 89 c2             	mov    %rax,%rdx
    38d4:	48 8b 75 e0          	mov    -0x20(%rbp),%rsi
    38d8:	48 8b 45 e8          	mov    -0x18(%rbp),%rax
    38dc:	4d 89 e0             	mov    %r12,%r8
    38df:	48 89 d9             	mov    %rbx,%rcx
    38e2:	48 89 c7             	mov    %rax,%rdi
    38e5:	e8 1e 09 00 00       	callq  4208 <_ZN9__gnu_cxx13new_allocatorINSt8__detail10_Hash_nodeISt4pairIKiiELb0EEEE9constructIS5_JRKSt21piecewise_construct_tSt5tupleIJRS4_EESC_IJEEEEEvPT_DpOT0_>
    38ea:	90                   	nop
    38eb:	48 83 c4 30          	add    $0x30,%rsp
    38ef:	5b                   	pop    %rbx
    38f0:	41 5c                	pop    %r12
    38f2:	5d                   	pop    %rbp
    38f3:	c3                   	retq   

00000000000038f4 <_ZN9__gnu_cxx13new_allocatorIiE9constructIiJiEEEvPT_DpOT0_>:
    38f4:	f3 0f 1e fa          	endbr64 
    38f8:	55                   	push   %rbp
    38f9:	48 89 e5             	mov    %rsp,%rbp
    38fc:	53                   	push   %rbx
    38fd:	48 83 ec 28          	sub    $0x28,%rsp
    3901:	48 89 7d e8          	mov    %rdi,-0x18(%rbp)
    3905:	48 89 75 e0          	mov    %rsi,-0x20(%rbp)
    3909:	48 89 55 d8          	mov    %rdx,-0x28(%rbp)
    390d:	48 8b 45 d8          	mov    -0x28(%rbp),%rax
    3911:	48 89 c7             	mov    %rax,%rdi
    3914:	e8 12 e1 ff ff       	callq  1a2b <_ZSt7forwardIiEOT_RNSt16remove_referenceIS0_E4typeE>
    3919:	8b 18                	mov    (%rax),%ebx
    391b:	48 8b 45 e0          	mov    -0x20(%rbp),%rax
    391f:	48 89 c6             	mov    %rax,%rsi
    3922:	bf 04 00 00 00       	mov    $0x4,%edi
    3927:	e8 64 dc ff ff       	callq  1590 <_ZnwmPv>
    392c:	89 18                	mov    %ebx,(%rax)
    392e:	90                   	nop
    392f:	48 83 c4 28          	add    $0x28,%rsp
    3933:	5b                   	pop    %rbx
    3934:	5d                   	pop    %rbp
    3935:	c3                   	retq   

0000000000003936 <_ZNKSt6vectorIiSaIiEE12_M_check_lenEmPKc>:
    3936:	f3 0f 1e fa          	endbr64 
    393a:	55                   	push   %rbp
    393b:	48 89 e5             	mov    %rsp,%rbp
    393e:	53                   	push   %rbx
    393f:	48 83 ec 48          	sub    $0x48,%rsp
    3943:	48 89 7d c8          	mov    %rdi,-0x38(%rbp)
    3947:	48 89 75 c0          	mov    %rsi,-0x40(%rbp)
    394b:	48 89 55 b8          	mov    %rdx,-0x48(%rbp)
    394f:	64 48 8b 04 25 28 00 	mov    %fs:0x28,%rax
    3956:	00 00 
    3958:	48 89 45 e8          	mov    %rax,-0x18(%rbp)
    395c:	31 c0                	xor    %eax,%eax
    395e:	48 8b 45 c8          	mov    -0x38(%rbp),%rax
    3962:	48 89 c7             	mov    %rax,%rdi
    3965:	e8 6a 09 00 00       	callq  42d4 <_ZNKSt6vectorIiSaIiEE8max_sizeEv>
    396a:	48 89 c3             	mov    %rax,%rbx
    396d:	48 8b 45 c8          	mov    -0x38(%rbp),%rax
    3971:	48 89 c7             	mov    %rax,%rdi
    3974:	e8 23 e2 ff ff       	callq  1b9c <_ZNKSt6vectorIiSaIiEE4sizeEv>
    3979:	48 29 c3             	sub    %rax,%rbx
    397c:	48 89 da             	mov    %rbx,%rdx
    397f:	48 8b 45 c0          	mov    -0x40(%rbp),%rax
    3983:	48 39 c2             	cmp    %rax,%rdx
    3986:	0f 92 c0             	setb   %al
    3989:	84 c0                	test   %al,%al
    398b:	74 0c                	je     3999 <_ZNKSt6vectorIiSaIiEE12_M_check_lenEmPKc+0x63>
    398d:	48 8b 45 b8          	mov    -0x48(%rbp),%rax
    3991:	48 89 c7             	mov    %rax,%rdi
    3994:	e8 d7 d7 ff ff       	callq  1170 <_ZSt20__throw_length_errorPKc@plt>
    3999:	48 8b 45 c8          	mov    -0x38(%rbp),%rax
    399d:	48 89 c7             	mov    %rax,%rdi
    39a0:	e8 f7 e1 ff ff       	callq  1b9c <_ZNKSt6vectorIiSaIiEE4sizeEv>
    39a5:	48 89 c3             	mov    %rax,%rbx
    39a8:	48 8b 45 c8          	mov    -0x38(%rbp),%rax
    39ac:	48 89 c7             	mov    %rax,%rdi
    39af:	e8 e8 e1 ff ff       	callq  1b9c <_ZNKSt6vectorIiSaIiEE4sizeEv>
    39b4:	48 89 45 d8          	mov    %rax,-0x28(%rbp)
    39b8:	48 8d 55 c0          	lea    -0x40(%rbp),%rdx
    39bc:	48 8d 45 d8          	lea    -0x28(%rbp),%rax
    39c0:	48 89 d6             	mov    %rdx,%rsi
    39c3:	48 89 c7             	mov    %rax,%rdi
    39c6:	e8 31 e0 ff ff       	callq  19fc <_ZSt3maxImERKT_S2_S2_>
    39cb:	48 8b 00             	mov    (%rax),%rax
    39ce:	48 01 d8             	add    %rbx,%rax
    39d1:	48 89 45 e0          	mov    %rax,-0x20(%rbp)
    39d5:	48 8b 45 c8          	mov    -0x38(%rbp),%rax
    39d9:	48 89 c7             	mov    %rax,%rdi
    39dc:	e8 bb e1 ff ff       	callq  1b9c <_ZNKSt6vectorIiSaIiEE4sizeEv>
    39e1:	48 39 45 e0          	cmp    %rax,-0x20(%rbp)
    39e5:	72 12                	jb     39f9 <_ZNKSt6vectorIiSaIiEE12_M_check_lenEmPKc+0xc3>
    39e7:	48 8b 45 c8          	mov    -0x38(%rbp),%rax
    39eb:	48 89 c7             	mov    %rax,%rdi
    39ee:	e8 e1 08 00 00       	callq  42d4 <_ZNKSt6vectorIiSaIiEE8max_sizeEv>
    39f3:	48 39 45 e0          	cmp    %rax,-0x20(%rbp)
    39f7:	76 0e                	jbe    3a07 <_ZNKSt6vectorIiSaIiEE12_M_check_lenEmPKc+0xd1>
    39f9:	48 8b 45 c8          	mov    -0x38(%rbp),%rax
    39fd:	48 89 c7             	mov    %rax,%rdi
    3a00:	e8 cf 08 00 00       	callq  42d4 <_ZNKSt6vectorIiSaIiEE8max_sizeEv>
    3a05:	eb 04                	jmp    3a0b <_ZNKSt6vectorIiSaIiEE12_M_check_lenEmPKc+0xd5>
    3a07:	48 8b 45 e0          	mov    -0x20(%rbp),%rax
    3a0b:	48 8b 4d e8          	mov    -0x18(%rbp),%rcx
    3a0f:	64 48 33 0c 25 28 00 	xor    %fs:0x28,%rcx
    3a16:	00 00 
    3a18:	74 05                	je     3a1f <_ZNKSt6vectorIiSaIiEE12_M_check_lenEmPKc+0xe9>
    3a1a:	e8 c1 d7 ff ff       	callq  11e0 <__stack_chk_fail@plt>
    3a1f:	48 83 c4 48          	add    $0x48,%rsp
    3a23:	5b                   	pop    %rbx
    3a24:	5d                   	pop    %rbp
    3a25:	c3                   	retq   

0000000000003a26 <_ZN9__gnu_cxxmiIPiSt6vectorIiSaIiEEEENS_17__normal_iteratorIT_T0_E15difference_typeERKS8_SB_>:
    3a26:	f3 0f 1e fa          	endbr64 
    3a2a:	55                   	push   %rbp
    3a2b:	48 89 e5             	mov    %rsp,%rbp
    3a2e:	53                   	push   %rbx
    3a2f:	48 83 ec 18          	sub    $0x18,%rsp
    3a33:	48 89 7d e8          	mov    %rdi,-0x18(%rbp)
    3a37:	48 89 75 e0          	mov    %rsi,-0x20(%rbp)
    3a3b:	48 8b 45 e8          	mov    -0x18(%rbp),%rax
    3a3f:	48 89 c7             	mov    %rax,%rdi
    3a42:	e8 69 eb ff ff       	callq  25b0 <_ZNK9__gnu_cxx17__normal_iteratorIPiSt6vectorIiSaIiEEE4baseEv>
    3a47:	48 8b 18             	mov    (%rax),%rbx
    3a4a:	48 8b 45 e0          	mov    -0x20(%rbp),%rax
    3a4e:	48 89 c7             	mov    %rax,%rdi
    3a51:	e8 5a eb ff ff       	callq  25b0 <_ZNK9__gnu_cxx17__normal_iteratorIPiSt6vectorIiSaIiEEE4baseEv>
    3a56:	48 8b 00             	mov    (%rax),%rax
    3a59:	48 29 c3             	sub    %rax,%rbx
    3a5c:	48 89 d8             	mov    %rbx,%rax
    3a5f:	48 c1 f8 02          	sar    $0x2,%rax
    3a63:	48 83 c4 18          	add    $0x18,%rsp
    3a67:	5b                   	pop    %rbx
    3a68:	5d                   	pop    %rbp
    3a69:	c3                   	retq   

0000000000003a6a <_ZNSt6vectorIiSaIiEE11_S_relocateEPiS2_S2_RS0_>:
    3a6a:	f3 0f 1e fa          	endbr64 
    3a6e:	55                   	push   %rbp
    3a6f:	48 89 e5             	mov    %rsp,%rbp
    3a72:	48 83 ec 30          	sub    $0x30,%rsp
    3a76:	48 89 7d e8          	mov    %rdi,-0x18(%rbp)
    3a7a:	48 89 75 e0          	mov    %rsi,-0x20(%rbp)
    3a7e:	48 89 55 d8          	mov    %rdx,-0x28(%rbp)
    3a82:	48 89 4d d0          	mov    %rcx,-0x30(%rbp)
    3a86:	64 48 8b 04 25 28 00 	mov    %fs:0x28,%rax
    3a8d:	00 00 
    3a8f:	48 89 45 f8          	mov    %rax,-0x8(%rbp)
    3a93:	31 c0                	xor    %eax,%eax
    3a95:	48 8b 4d d0          	mov    -0x30(%rbp),%rcx
    3a99:	48 8b 55 d8          	mov    -0x28(%rbp),%rdx
    3a9d:	48 8b 75 e0          	mov    -0x20(%rbp),%rsi
    3aa1:	48 8b 45 e8          	mov    -0x18(%rbp),%rax
    3aa5:	48 89 c7             	mov    %rax,%rdi
    3aa8:	e8 4d 08 00 00       	callq  42fa <_ZNSt6vectorIiSaIiEE14_S_do_relocateEPiS2_S2_RS0_St17integral_constantIbLb1EE>
    3aad:	48 8b 7d f8          	mov    -0x8(%rbp),%rdi
    3ab1:	64 48 33 3c 25 28 00 	xor    %fs:0x28,%rdi
    3ab8:	00 00 
    3aba:	74 05                	je     3ac1 <_ZNSt6vectorIiSaIiEE11_S_relocateEPiS2_S2_RS0_+0x57>
    3abc:	e8 1f d7 ff ff       	callq  11e0 <__stack_chk_fail@plt>
    3ac1:	c9                   	leaveq 
    3ac2:	c3                   	retq   

0000000000003ac3 <_ZSt34__uninitialized_move_if_noexcept_aIPiS0_SaIiEET0_T_S3_S2_RT1_>:
    3ac3:	f3 0f 1e fa          	endbr64 
    3ac7:	55                   	push   %rbp
    3ac8:	48 89 e5             	mov    %rsp,%rbp
    3acb:	53                   	push   %rbx
    3acc:	48 83 ec 28          	sub    $0x28,%rsp
    3ad0:	48 89 7d e8          	mov    %rdi,-0x18(%rbp)
    3ad4:	48 89 75 e0          	mov    %rsi,-0x20(%rbp)
    3ad8:	48 89 55 d8          	mov    %rdx,-0x28(%rbp)
    3adc:	48 89 4d d0          	mov    %rcx,-0x30(%rbp)
    3ae0:	48 8b 45 e0          	mov    -0x20(%rbp),%rax
    3ae4:	48 89 c7             	mov    %rax,%rdi
    3ae7:	e8 44 08 00 00       	callq  4330 <_ZSt32__make_move_if_noexcept_iteratorIiSt13move_iteratorIPiEET0_PT_>
    3aec:	48 89 c3             	mov    %rax,%rbx
    3aef:	48 8b 45 e8          	mov    -0x18(%rbp),%rax
    3af3:	48 89 c7             	mov    %rax,%rdi
    3af6:	e8 35 08 00 00       	callq  4330 <_ZSt32__make_move_if_noexcept_iteratorIiSt13move_iteratorIPiEET0_PT_>
    3afb:	48 89 c7             	mov    %rax,%rdi
    3afe:	48 8b 55 d0          	mov    -0x30(%rbp),%rdx
    3b02:	48 8b 45 d8          	mov    -0x28(%rbp),%rax
    3b06:	48 89 d1             	mov    %rdx,%rcx
    3b09:	48 89 c2             	mov    %rax,%rdx
    3b0c:	48 89 de             	mov    %rbx,%rsi
    3b0f:	e8 68 08 00 00       	callq  437c <_ZSt22__uninitialized_copy_aISt13move_iteratorIPiES1_iET0_T_S4_S3_RSaIT1_E>
    3b14:	48 83 c4 28          	add    $0x28,%rsp
    3b18:	5b                   	pop    %rbx
    3b19:	5d                   	pop    %rbp
    3b1a:	c3                   	retq   

0000000000003b1b <_ZNSt16allocator_traitsISaIiEE7destroyIiEEvRS0_PT_>:
    3b1b:	f3 0f 1e fa          	endbr64 
    3b1f:	55                   	push   %rbp
    3b20:	48 89 e5             	mov    %rsp,%rbp
    3b23:	48 83 ec 10          	sub    $0x10,%rsp
    3b27:	48 89 7d f8          	mov    %rdi,-0x8(%rbp)
    3b2b:	48 89 75 f0          	mov    %rsi,-0x10(%rbp)
    3b2f:	48 8b 55 f0          	mov    -0x10(%rbp),%rdx
    3b33:	48 8b 45 f8          	mov    -0x8(%rbp),%rax
    3b37:	48 89 d6             	mov    %rdx,%rsi
    3b3a:	48 89 c7             	mov    %rax,%rdi
    3b3d:	e8 70 08 00 00       	callq  43b2 <_ZN9__gnu_cxx13new_allocatorIiE7destroyIiEEvPT_>
    3b42:	90                   	nop
    3b43:	c9                   	leaveq 
    3b44:	c3                   	retq   

0000000000003b45 <_ZSt19__iterator_categoryIPKiENSt15iterator_traitsIT_E17iterator_categoryERKS3_>:
    3b45:	f3 0f 1e fa          	endbr64 
    3b49:	55                   	push   %rbp
    3b4a:	48 89 e5             	mov    %rsp,%rbp
    3b4d:	48 89 7d f8          	mov    %rdi,-0x8(%rbp)
    3b51:	5d                   	pop    %rbp
    3b52:	c3                   	retq   

0000000000003b53 <_ZSt10__distanceIPKiENSt15iterator_traitsIT_E15difference_typeES3_S3_St26random_access_iterator_tag>:
    3b53:	f3 0f 1e fa          	endbr64 
    3b57:	55                   	push   %rbp
    3b58:	48 89 e5             	mov    %rsp,%rbp
    3b5b:	48 89 7d f8          	mov    %rdi,-0x8(%rbp)
    3b5f:	48 89 75 f0          	mov    %rsi,-0x10(%rbp)
    3b63:	48 8b 45 f0          	mov    -0x10(%rbp),%rax
    3b67:	48 2b 45 f8          	sub    -0x8(%rbp),%rax
    3b6b:	48 c1 f8 02          	sar    $0x2,%rax
    3b6f:	5d                   	pop    %rbp
    3b70:	c3                   	retq   

0000000000003b71 <_ZNSt6vectorIiSaIiEE11_S_max_sizeERKS0_>:
    3b71:	f3 0f 1e fa          	endbr64 
    3b75:	55                   	push   %rbp
    3b76:	48 89 e5             	mov    %rsp,%rbp
    3b79:	48 83 ec 30          	sub    $0x30,%rsp
    3b7d:	48 89 7d d8          	mov    %rdi,-0x28(%rbp)
    3b81:	64 48 8b 04 25 28 00 	mov    %fs:0x28,%rax
    3b88:	00 00 
    3b8a:	48 89 45 f8          	mov    %rax,-0x8(%rbp)
    3b8e:	31 c0                	xor    %eax,%eax
    3b90:	48 b8 ff ff ff ff ff 	movabs $0x1fffffffffffffff,%rax
    3b97:	ff ff 1f 
    3b9a:	48 89 45 e8          	mov    %rax,-0x18(%rbp)
    3b9e:	48 8b 45 d8          	mov    -0x28(%rbp),%rax
    3ba2:	48 89 c7             	mov    %rax,%rdi
    3ba5:	e8 1b 08 00 00       	callq  43c5 <_ZNSt16allocator_traitsISaIiEE8max_sizeERKS0_>
    3baa:	48 89 45 f0          	mov    %rax,-0x10(%rbp)
    3bae:	48 8d 55 f0          	lea    -0x10(%rbp),%rdx
    3bb2:	48 8d 45 e8          	lea    -0x18(%rbp),%rax
    3bb6:	48 89 d6             	mov    %rdx,%rsi
    3bb9:	48 89 c7             	mov    %rax,%rdi
    3bbc:	e8 b2 da ff ff       	callq  1673 <_ZSt3minImERKT_S2_S2_>
    3bc1:	48 8b 00             	mov    (%rax),%rax
    3bc4:	48 8b 4d f8          	mov    -0x8(%rbp),%rcx
    3bc8:	64 48 33 0c 25 28 00 	xor    %fs:0x28,%rcx
    3bcf:	00 00 
    3bd1:	74 05                	je     3bd8 <_ZNSt6vectorIiSaIiEE11_S_max_sizeERKS0_+0x67>
    3bd3:	e8 08 d6 ff ff       	callq  11e0 <__stack_chk_fail@plt>
    3bd8:	c9                   	leaveq 
    3bd9:	c3                   	retq   

0000000000003bda <_ZNSt16allocator_traitsISaIiEE8allocateERS0_m>:
    3bda:	f3 0f 1e fa          	endbr64 
    3bde:	55                   	push   %rbp
    3bdf:	48 89 e5             	mov    %rsp,%rbp
    3be2:	48 83 ec 10          	sub    $0x10,%rsp
    3be6:	48 89 7d f8          	mov    %rdi,-0x8(%rbp)
    3bea:	48 89 75 f0          	mov    %rsi,-0x10(%rbp)
    3bee:	48 8b 4d f0          	mov    -0x10(%rbp),%rcx
    3bf2:	48 8b 45 f8          	mov    -0x8(%rbp),%rax
    3bf6:	ba 00 00 00 00       	mov    $0x0,%edx
    3bfb:	48 89 ce             	mov    %rcx,%rsi
    3bfe:	48 89 c7             	mov    %rax,%rdi
    3c01:	e8 de 07 00 00       	callq  43e4 <_ZN9__gnu_cxx13new_allocatorIiE8allocateEmPKv>
    3c06:	c9                   	leaveq 
    3c07:	c3                   	retq   

0000000000003c08 <_ZSt18uninitialized_copyIPKiPiET0_T_S4_S3_>:
    3c08:	f3 0f 1e fa          	endbr64 
    3c0c:	55                   	push   %rbp
    3c0d:	48 89 e5             	mov    %rsp,%rbp
    3c10:	48 83 ec 30          	sub    $0x30,%rsp
    3c14:	48 89 7d e8          	mov    %rdi,-0x18(%rbp)
    3c18:	48 89 75 e0          	mov    %rsi,-0x20(%rbp)
    3c1c:	48 89 55 d8          	mov    %rdx,-0x28(%rbp)
    3c20:	c6 45 ff 01          	movb   $0x1,-0x1(%rbp)
    3c24:	48 8b 55 d8          	mov    -0x28(%rbp),%rdx
    3c28:	48 8b 4d e0          	mov    -0x20(%rbp),%rcx
    3c2c:	48 8b 45 e8          	mov    -0x18(%rbp),%rax
    3c30:	48 89 ce             	mov    %rcx,%rsi
    3c33:	48 89 c7             	mov    %rax,%rdi
    3c36:	e8 ef 07 00 00       	callq  442a <_ZNSt20__uninitialized_copyILb1EE13__uninit_copyIPKiPiEET0_T_S6_S5_>
    3c3b:	c9                   	leaveq 
    3c3c:	c3                   	retq   

0000000000003c3d <_ZNSt16allocator_traitsISaINSt8__detail10_Hash_nodeISt4pairIKiiELb0EEEEE7destroyIS4_EEvRS6_PT_>:
    3c3d:	f3 0f 1e fa          	endbr64 
    3c41:	55                   	push   %rbp
    3c42:	48 89 e5             	mov    %rsp,%rbp
    3c45:	48 83 ec 10          	sub    $0x10,%rsp
    3c49:	48 89 7d f8          	mov    %rdi,-0x8(%rbp)
    3c4d:	48 89 75 f0          	mov    %rsi,-0x10(%rbp)
    3c51:	48 8b 55 f0          	mov    -0x10(%rbp),%rdx
    3c55:	48 8b 45 f8          	mov    -0x8(%rbp),%rax
    3c59:	48 89 d6             	mov    %rdx,%rsi
    3c5c:	48 89 c7             	mov    %rax,%rdi
    3c5f:	e8 f8 07 00 00       	callq  445c <_ZN9__gnu_cxx13new_allocatorINSt8__detail10_Hash_nodeISt4pairIKiiELb0EEEE7destroyIS5_EEvPT_>
    3c64:	90                   	nop
    3c65:	c9                   	leaveq 
    3c66:	c3                   	retq   
    3c67:	90                   	nop

0000000000003c68 <_ZNSt8__detail16_Hashtable_allocISaINS_10_Hash_nodeISt4pairIKiiELb0EEEEE22_M_deallocate_node_ptrEPS5_>:
    3c68:	f3 0f 1e fa          	endbr64 
    3c6c:	55                   	push   %rbp
    3c6d:	48 89 e5             	mov    %rsp,%rbp
    3c70:	48 83 ec 20          	sub    $0x20,%rsp
    3c74:	48 89 7d e8          	mov    %rdi,-0x18(%rbp)
    3c78:	48 89 75 e0          	mov    %rsi,-0x20(%rbp)
    3c7c:	48 8b 45 e0          	mov    -0x20(%rbp),%rax
    3c80:	48 89 c7             	mov    %rax,%rdi
    3c83:	e8 e7 07 00 00       	callq  446f <_ZNSt14pointer_traitsIPNSt8__detail10_Hash_nodeISt4pairIKiiELb0EEEE10pointer_toERS5_>
    3c88:	48 89 45 f8          	mov    %rax,-0x8(%rbp)
    3c8c:	48 8b 45 e8          	mov    -0x18(%rbp),%rax
    3c90:	48 89 c7             	mov    %rax,%rdi
    3c93:	e8 6e f8 ff ff       	callq  3506 <_ZNSt8__detail16_Hashtable_allocISaINS_10_Hash_nodeISt4pairIKiiELb0EEEEE17_M_node_allocatorEv>
    3c98:	48 89 c1             	mov    %rax,%rcx
    3c9b:	48 8b 45 f8          	mov    -0x8(%rbp),%rax
    3c9f:	ba 01 00 00 00       	mov    $0x1,%edx
    3ca4:	48 89 c6             	mov    %rax,%rsi
    3ca7:	48 89 cf             	mov    %rcx,%rdi
    3caa:	e8 7d f9 ff ff       	callq  362c <_ZNSt16allocator_traitsISaINSt8__detail10_Hash_nodeISt4pairIKiiELb0EEEEE10deallocateERS6_PS5_m>
    3caf:	90                   	nop
    3cb0:	c9                   	leaveq 
    3cb1:	c3                   	retq   

0000000000003cb2 <_ZNSt14pointer_traitsIPPNSt8__detail15_Hash_node_baseEE10pointer_toERS2_>:
    3cb2:	f3 0f 1e fa          	endbr64 
    3cb6:	55                   	push   %rbp
    3cb7:	48 89 e5             	mov    %rsp,%rbp
    3cba:	48 83 ec 10          	sub    $0x10,%rsp
    3cbe:	48 89 7d f8          	mov    %rdi,-0x8(%rbp)
    3cc2:	48 8b 45 f8          	mov    -0x8(%rbp),%rax
    3cc6:	48 89 c7             	mov    %rax,%rdi
    3cc9:	e8 bf 07 00 00       	callq  448d <_ZSt9addressofIPNSt8__detail15_Hash_node_baseEEPT_RS3_>
    3cce:	c9                   	leaveq 
    3ccf:	c3                   	retq   

0000000000003cd0 <_ZNSaIPNSt8__detail15_Hash_node_baseEEC1INS_10_Hash_nodeISt4pairIKiiELb0EEEEERKSaIT_E>:
    3cd0:	f3 0f 1e fa          	endbr64 
    3cd4:	55                   	push   %rbp
    3cd5:	48 89 e5             	mov    %rsp,%rbp
    3cd8:	48 83 ec 10          	sub    $0x10,%rsp
    3cdc:	48 89 7d f8          	mov    %rdi,-0x8(%rbp)
    3ce0:	48 89 75 f0          	mov    %rsi,-0x10(%rbp)
    3ce4:	48 8b 45 f8          	mov    -0x8(%rbp),%rax
    3ce8:	48 89 c7             	mov    %rax,%rdi
    3ceb:	e8 bc 07 00 00       	callq  44ac <_ZN9__gnu_cxx13new_allocatorIPNSt8__detail15_Hash_node_baseEEC1Ev>
    3cf0:	90                   	nop
    3cf1:	c9                   	leaveq 
    3cf2:	c3                   	retq   
    3cf3:	90                   	nop

0000000000003cf4 <_ZNSaIPNSt8__detail15_Hash_node_baseEED1Ev>:
    3cf4:	f3 0f 1e fa          	endbr64 
    3cf8:	55                   	push   %rbp
    3cf9:	48 89 e5             	mov    %rsp,%rbp
    3cfc:	48 83 ec 10          	sub    $0x10,%rsp
    3d00:	48 89 7d f8          	mov    %rdi,-0x8(%rbp)
    3d04:	48 8b 45 f8          	mov    -0x8(%rbp),%rax
    3d08:	48 89 c7             	mov    %rax,%rdi
    3d0b:	e8 ac 07 00 00       	callq  44bc <_ZN9__gnu_cxx13new_allocatorIPNSt8__detail15_Hash_node_baseEED1Ev>
    3d10:	90                   	nop
    3d11:	c9                   	leaveq 
    3d12:	c3                   	retq   

0000000000003d13 <_ZNSt16allocator_traitsISaIPNSt8__detail15_Hash_node_baseEEE10deallocateERS3_PS2_m>:
    3d13:	f3 0f 1e fa          	endbr64 
    3d17:	55                   	push   %rbp
    3d18:	48 89 e5             	mov    %rsp,%rbp
    3d1b:	48 83 ec 20          	sub    $0x20,%rsp
    3d1f:	48 89 7d f8          	mov    %rdi,-0x8(%rbp)
    3d23:	48 89 75 f0          	mov    %rsi,-0x10(%rbp)
    3d27:	48 89 55 e8          	mov    %rdx,-0x18(%rbp)
    3d2b:	48 8b 55 e8          	mov    -0x18(%rbp),%rdx
    3d2f:	48 8b 4d f0          	mov    -0x10(%rbp),%rcx
    3d33:	48 8b 45 f8          	mov    -0x8(%rbp),%rax
    3d37:	48 89 ce             	mov    %rcx,%rsi
    3d3a:	48 89 c7             	mov    %rax,%rdi
    3d3d:	e8 8a 07 00 00       	callq  44cc <_ZN9__gnu_cxx13new_allocatorIPNSt8__detail15_Hash_node_baseEE10deallocateEPS3_m>
    3d42:	90                   	nop
    3d43:	c9                   	leaveq 
    3d44:	c3                   	retq   

0000000000003d45 <_ZNSt8__detail21_Hashtable_ebo_helperILi1ESt4hashIiELb1EE7_S_cgetERKS3_>:
    3d45:	f3 0f 1e fa          	endbr64 
    3d49:	55                   	push   %rbp
    3d4a:	48 89 e5             	mov    %rsp,%rbp
    3d4d:	48 89 7d f8          	mov    %rdi,-0x8(%rbp)
    3d51:	48 8b 45 f8          	mov    -0x8(%rbp),%rax
    3d55:	5d                   	pop    %rbp
    3d56:	c3                   	retq   
    3d57:	90                   	nop

0000000000003d58 <_ZNKSt8__detail15_Hash_code_baseIiSt4pairIKiiENS_10_Select1stESt4hashIiENS_18_Mod_range_hashingENS_20_Default_ranged_hashELb0EE5_M_h2Ev>:
    3d58:	f3 0f 1e fa          	endbr64 
    3d5c:	55                   	push   %rbp
    3d5d:	48 89 e5             	mov    %rsp,%rbp
    3d60:	48 83 ec 10          	sub    $0x10,%rsp
    3d64:	48 89 7d f8          	mov    %rdi,-0x8(%rbp)
    3d68:	48 8b 45 f8          	mov    -0x8(%rbp),%rax
    3d6c:	48 89 c7             	mov    %rax,%rdi
    3d6f:	e8 7f 07 00 00       	callq  44f3 <_ZNSt8__detail21_Hashtable_ebo_helperILi2ENS_18_Mod_range_hashingELb1EE7_S_cgetERKS2_>
    3d74:	c9                   	leaveq 
    3d75:	c3                   	retq   

0000000000003d76 <_ZNKSt8__detail15_Hashtable_baseIiSt4pairIKiiENS_10_Select1stESt8equal_toIiESt4hashIiENS_18_Mod_range_hashingENS_20_Default_ranged_hashENS_17_Hashtable_traitsILb0ELb0ELb1EEEE9_M_equalsERS2_mPNS_10_Hash_nodeIS3_Lb0EEE>:
    3d76:	f3 0f 1e fa          	endbr64 
    3d7a:	55                   	push   %rbp
    3d7b:	48 89 e5             	mov    %rsp,%rbp
    3d7e:	53                   	push   %rbx
    3d7f:	48 83 ec 28          	sub    $0x28,%rsp
    3d83:	48 89 7d e8          	mov    %rdi,-0x18(%rbp)
    3d87:	48 89 75 e0          	mov    %rsi,-0x20(%rbp)
    3d8b:	48 89 55 d8          	mov    %rdx,-0x28(%rbp)
    3d8f:	48 89 4d d0          	mov    %rcx,-0x30(%rbp)
    3d93:	48 8b 45 e8          	mov    -0x18(%rbp),%rax
    3d97:	48 89 c7             	mov    %rax,%rdi
    3d9a:	e8 db 07 00 00       	callq  457a <_ZNKSt8__detail15_Hash_code_baseIiSt4pairIKiiENS_10_Select1stESt4hashIiENS_18_Mod_range_hashingENS_20_Default_ranged_hashELb0EE10_M_extractEv>
    3d9f:	48 89 c3             	mov    %rax,%rbx
    3da2:	48 8b 45 e8          	mov    -0x18(%rbp),%rax
    3da6:	48 89 c7             	mov    %rax,%rdi
    3da9:	e8 ae 07 00 00       	callq  455c <_ZNKSt8__detail15_Hashtable_baseIiSt4pairIKiiENS_10_Select1stESt8equal_toIiESt4hashIiENS_18_Mod_range_hashingENS_20_Default_ranged_hashENS_17_Hashtable_traitsILb0ELb0ELb1EEEE5_M_eqEv>
    3dae:	48 89 c7             	mov    %rax,%rdi
    3db1:	48 8b 4d d0          	mov    -0x30(%rbp),%rcx
    3db5:	48 8b 55 d8          	mov    -0x28(%rbp),%rdx
    3db9:	48 8b 45 e0          	mov    -0x20(%rbp),%rax
    3dbd:	49 89 c8             	mov    %rcx,%r8
    3dc0:	48 89 d1             	mov    %rdx,%rcx
    3dc3:	48 89 c2             	mov    %rax,%rdx
    3dc6:	48 89 de             	mov    %rbx,%rsi
    3dc9:	e8 37 07 00 00       	callq  4505 <_ZNSt8__detail13_Equal_helperIiSt4pairIKiiENS_10_Select1stESt8equal_toIiEmLb0EE9_S_equalsERKS6_RKS4_RS2_mPNS_10_Hash_nodeIS3_Lb0EEE>
    3dce:	48 83 c4 28          	add    $0x28,%rsp
    3dd2:	5b                   	pop    %rbx
    3dd3:	5d                   	pop    %rbp
    3dd4:	c3                   	retq   
    3dd5:	90                   	nop

0000000000003dd6 <_ZNKSt10_HashtableIiSt4pairIKiiESaIS2_ENSt8__detail10_Select1stESt8equal_toIiESt4hashIiENS4_18_Mod_range_hashingENS4_20_Default_ranged_hashENS4_20_Prime_rehash_policyENS4_17_Hashtable_traitsILb0ELb0ELb1EEEE15_M_bucket_indexEPNS4_10_Hash_nodeIS2_Lb0EEE>:
    3dd6:	f3 0f 1e fa          	endbr64 
    3dda:	55                   	push   %rbp
    3ddb:	48 89 e5             	mov    %rsp,%rbp
    3dde:	48 83 ec 10          	sub    $0x10,%rsp
    3de2:	48 89 7d f8          	mov    %rdi,-0x8(%rbp)
    3de6:	48 89 75 f0          	mov    %rsi,-0x10(%rbp)
    3dea:	48 8b 45 f8          	mov    -0x8(%rbp),%rax
    3dee:	48 8b 50 08          	mov    0x8(%rax),%rdx
    3df2:	48 8b 4d f0          	mov    -0x10(%rbp),%rcx
    3df6:	48 8b 45 f8          	mov    -0x8(%rbp),%rax
    3dfa:	48 89 ce             	mov    %rcx,%rsi
    3dfd:	48 89 c7             	mov    %rax,%rdi
    3e00:	e8 93 07 00 00       	callq  4598 <_ZNKSt8__detail15_Hash_code_baseIiSt4pairIKiiENS_10_Select1stESt4hashIiENS_18_Mod_range_hashingENS_20_Default_ranged_hashELb0EE15_M_bucket_indexEPKNS_10_Hash_nodeIS3_Lb0EEEm>
    3e05:	c9                   	leaveq 
    3e06:	c3                   	retq   
    3e07:	90                   	nop

0000000000003e08 <_ZNSt11_Tuple_implILm0EJOiEEC1IiEEOT_>:
    3e08:	f3 0f 1e fa          	endbr64 
    3e0c:	55                   	push   %rbp
    3e0d:	48 89 e5             	mov    %rsp,%rbp
    3e10:	53                   	push   %rbx
    3e11:	48 83 ec 18          	sub    $0x18,%rsp
    3e15:	48 89 7d e8          	mov    %rdi,-0x18(%rbp)
    3e19:	48 89 75 e0          	mov    %rsi,-0x20(%rbp)
    3e1d:	48 8b 5d e8          	mov    -0x18(%rbp),%rbx
    3e21:	48 8b 45 e0          	mov    -0x20(%rbp),%rax
    3e25:	48 89 c7             	mov    %rax,%rdi
    3e28:	e8 fe db ff ff       	callq  1a2b <_ZSt7forwardIiEOT_RNSt16remove_referenceIS0_E4typeE>
    3e2d:	48 89 c6             	mov    %rax,%rsi
    3e30:	48 89 df             	mov    %rbx,%rdi
    3e33:	e8 38 00 00 00       	callq  3e70 <_ZNSt10_Head_baseILm0EOiLb0EEC1IiEEOT_>
    3e38:	90                   	nop
    3e39:	48 83 c4 18          	add    $0x18,%rsp
    3e3d:	5b                   	pop    %rbx
    3e3e:	5d                   	pop    %rbp
    3e3f:	c3                   	retq   

0000000000003e40 <_ZNSt11_Tuple_implILm0EJOiEE7_M_headERS1_>:
    3e40:	f3 0f 1e fa          	endbr64 
    3e44:	55                   	push   %rbp
    3e45:	48 89 e5             	mov    %rsp,%rbp
    3e48:	48 83 ec 10          	sub    $0x10,%rsp
    3e4c:	48 89 7d f8          	mov    %rdi,-0x8(%rbp)
    3e50:	48 8b 45 f8          	mov    -0x8(%rbp),%rax
    3e54:	48 89 c7             	mov    %rax,%rdi
    3e57:	e8 c9 07 00 00       	callq  4625 <_ZNSt10_Head_baseILm0EOiLb0EE7_M_headERS1_>
    3e5c:	c9                   	leaveq 
    3e5d:	c3                   	retq   

0000000000003e5e <_ZSt7forwardIOiEOT_RNSt16remove_referenceIS1_E4typeE>:
    3e5e:	f3 0f 1e fa          	endbr64 
    3e62:	55                   	push   %rbp
    3e63:	48 89 e5             	mov    %rsp,%rbp
    3e66:	48 89 7d f8          	mov    %rdi,-0x8(%rbp)
    3e6a:	48 8b 45 f8          	mov    -0x8(%rbp),%rax
    3e6e:	5d                   	pop    %rbp
    3e6f:	c3                   	retq   

0000000000003e70 <_ZNSt10_Head_baseILm0EOiLb0EEC1IiEEOT_>:
    3e70:	f3 0f 1e fa          	endbr64 
    3e74:	55                   	push   %rbp
    3e75:	48 89 e5             	mov    %rsp,%rbp
    3e78:	48 83 ec 10          	sub    $0x10,%rsp
    3e7c:	48 89 7d f8          	mov    %rdi,-0x8(%rbp)
    3e80:	48 89 75 f0          	mov    %rsi,-0x10(%rbp)
    3e84:	48 8b 45 f0          	mov    -0x10(%rbp),%rax
    3e88:	48 89 c7             	mov    %rax,%rdi
    3e8b:	e8 9b db ff ff       	callq  1a2b <_ZSt7forwardIiEOT_RNSt16remove_referenceIS0_E4typeE>
    3e90:	48 8b 55 f8          	mov    -0x8(%rbp),%rdx
    3e94:	48 89 02             	mov    %rax,(%rdx)
    3e97:	90                   	nop
    3e98:	c9                   	leaveq 
    3e99:	c3                   	retq   

0000000000003e9a <_ZNSt8__detail21_Hashtable_ebo_helperILi0ESaINS_10_Hash_nodeISt4pairIKiiELb0EEEELb1EE6_S_getERS7_>:
    3e9a:	f3 0f 1e fa          	endbr64 
    3e9e:	55                   	push   %rbp
    3e9f:	48 89 e5             	mov    %rsp,%rbp
    3ea2:	48 89 7d f8          	mov    %rdi,-0x8(%rbp)
    3ea6:	48 8b 45 f8          	mov    -0x8(%rbp),%rax
    3eaa:	5d                   	pop    %rbp
    3eab:	c3                   	retq   

0000000000003eac <_ZN9__gnu_cxx13new_allocatorINSt8__detail10_Hash_nodeISt4pairIKiiELb0EEEE8allocateEmPKv>:
    3eac:	f3 0f 1e fa          	endbr64 
    3eb0:	55                   	push   %rbp
    3eb1:	48 89 e5             	mov    %rsp,%rbp
    3eb4:	48 83 ec 20          	sub    $0x20,%rsp
    3eb8:	48 89 7d f8          	mov    %rdi,-0x8(%rbp)
    3ebc:	48 89 75 f0          	mov    %rsi,-0x10(%rbp)
    3ec0:	48 89 55 e8          	mov    %rdx,-0x18(%rbp)
    3ec4:	48 8b 45 f8          	mov    -0x8(%rbp),%rax
    3ec8:	48 89 c7             	mov    %rax,%rdi
    3ecb:	e8 6a 07 00 00       	callq  463a <_ZNK9__gnu_cxx13new_allocatorINSt8__detail10_Hash_nodeISt4pairIKiiELb0EEEE8max_sizeEv>
    3ed0:	48 39 45 f0          	cmp    %rax,-0x10(%rbp)
    3ed4:	0f 97 c0             	seta   %al
    3ed7:	84 c0                	test   %al,%al
    3ed9:	74 05                	je     3ee0 <_ZN9__gnu_cxx13new_allocatorINSt8__detail10_Hash_nodeISt4pairIKiiELb0EEEE8allocateEmPKv+0x34>
    3edb:	e8 70 d2 ff ff       	callq  1150 <_ZSt17__throw_bad_allocv@plt>
    3ee0:	48 8b 45 f0          	mov    -0x10(%rbp),%rax
    3ee4:	48 c1 e0 04          	shl    $0x4,%rax
    3ee8:	48 89 c7             	mov    %rax,%rdi
    3eeb:	e8 d0 d2 ff ff       	callq  11c0 <_Znwm@plt>
    3ef0:	c9                   	leaveq 
    3ef1:	c3                   	retq   

0000000000003ef2 <_ZN9__gnu_cxx16__aligned_bufferISt4pairIKiiEE6_M_ptrEv>:
    3ef2:	f3 0f 1e fa          	endbr64 
    3ef6:	55                   	push   %rbp
    3ef7:	48 89 e5             	mov    %rsp,%rbp
    3efa:	48 83 ec 10          	sub    $0x10,%rsp
    3efe:	48 89 7d f8          	mov    %rdi,-0x8(%rbp)
    3f02:	48 8b 45 f8          	mov    -0x8(%rbp),%rax
    3f06:	48 89 c7             	mov    %rax,%rdi
    3f09:	e8 44 07 00 00       	callq  4652 <_ZN9__gnu_cxx16__aligned_bufferISt4pairIKiiEE7_M_addrEv>
    3f0e:	c9                   	leaveq 
    3f0f:	c3                   	retq   

0000000000003f10 <_ZN9__gnu_cxx13new_allocatorINSt8__detail10_Hash_nodeISt4pairIKiiELb0EEEE9constructIS5_JRKSt21piecewise_construct_tSt5tupleIJOiEESC_IJEEEEEvPT_DpOT0_>:
    3f10:	f3 0f 1e fa          	endbr64 
    3f14:	55                   	push   %rbp
    3f15:	48 89 e5             	mov    %rsp,%rbp
    3f18:	41 55                	push   %r13
    3f1a:	41 54                	push   %r12
    3f1c:	53                   	push   %rbx
    3f1d:	48 83 ec 58          	sub    $0x58,%rsp
    3f21:	48 89 7d b8          	mov    %rdi,-0x48(%rbp)
    3f25:	48 89 75 b0          	mov    %rsi,-0x50(%rbp)
    3f29:	48 89 55 a8          	mov    %rdx,-0x58(%rbp)
    3f2d:	48 89 4d a0          	mov    %rcx,-0x60(%rbp)
    3f31:	4c 89 45 98          	mov    %r8,-0x68(%rbp)
    3f35:	64 48 8b 04 25 28 00 	mov    %fs:0x28,%rax
    3f3c:	00 00 
    3f3e:	48 89 45 d8          	mov    %rax,-0x28(%rbp)
    3f42:	31 c0                	xor    %eax,%eax
    3f44:	48 8b 45 a8          	mov    -0x58(%rbp),%rax
    3f48:	48 89 c7             	mov    %rax,%rdi
    3f4b:	e8 36 f6 ff ff       	callq  3586 <_ZSt7forwardIRKSt21piecewise_construct_tEOT_RNSt16remove_referenceIS3_E4typeE>
    3f50:	48 8b 45 a0          	mov    -0x60(%rbp),%rax
    3f54:	48 89 c7             	mov    %rax,%rdi
    3f57:	e8 3c f6 ff ff       	callq  3598 <_ZSt7forwardISt5tupleIJOiEEEOT_RNSt16remove_referenceIS3_E4typeE>
    3f5c:	48 89 c2             	mov    %rax,%rdx
    3f5f:	48 8d 45 d0          	lea    -0x30(%rbp),%rax
    3f63:	48 89 d6             	mov    %rdx,%rsi
    3f66:	48 89 c7             	mov    %rax,%rdi
    3f69:	e8 44 e8 ff ff       	callq  27b2 <_ZNSt5tupleIJOiEEC1EOS1_>
    3f6e:	4c 8d 6d d0          	lea    -0x30(%rbp),%r13
    3f72:	48 8b 45 98          	mov    -0x68(%rbp),%rax
    3f76:	48 89 c7             	mov    %rax,%rdi
    3f79:	e8 2c f6 ff ff       	callq  35aa <_ZSt7forwardISt5tupleIJEEEOT_RNSt16remove_referenceIS2_E4typeE>
    3f7e:	48 8b 5d b0          	mov    -0x50(%rbp),%rbx
    3f82:	48 89 de             	mov    %rbx,%rsi
    3f85:	bf 08 00 00 00       	mov    $0x8,%edi
    3f8a:	e8 01 d6 ff ff       	callq  1590 <_ZnwmPv>
    3f8f:	49 89 c4             	mov    %rax,%r12
    3f92:	4c 89 ee             	mov    %r13,%rsi
    3f95:	4c 89 e7             	mov    %r12,%rdi
    3f98:	e8 c7 06 00 00       	callq  4664 <_ZNSt4pairIKiiEC1IJOiEJEEESt21piecewise_construct_tSt5tupleIJDpT_EES5_IJDpT0_EE>
    3f9d:	eb 1d                	jmp    3fbc <_ZN9__gnu_cxx13new_allocatorINSt8__detail10_Hash_nodeISt4pairIKiiELb0EEEE9constructIS5_JRKSt21piecewise_construct_tSt5tupleIJOiEESC_IJEEEEEvPT_DpOT0_+0xac>
    3f9f:	f3 0f 1e fa          	endbr64 
    3fa3:	49 89 c5             	mov    %rax,%r13
    3fa6:	48 89 de             	mov    %rbx,%rsi
    3fa9:	4c 89 e7             	mov    %r12,%rdi
    3fac:	e8 f5 d5 ff ff       	callq  15a6 <_ZdlPvS_>
    3fb1:	4c 89 e8             	mov    %r13,%rax
    3fb4:	48 89 c7             	mov    %rax,%rdi
    3fb7:	e8 94 d2 ff ff       	callq  1250 <_Unwind_Resume@plt>
    3fbc:	48 8b 45 d8          	mov    -0x28(%rbp),%rax
    3fc0:	64 48 33 04 25 28 00 	xor    %fs:0x28,%rax
    3fc7:	00 00 
    3fc9:	74 05                	je     3fd0 <_ZN9__gnu_cxx13new_allocatorINSt8__detail10_Hash_nodeISt4pairIKiiELb0EEEE9constructIS5_JRKSt21piecewise_construct_tSt5tupleIJOiEESC_IJEEEEEvPT_DpOT0_+0xc0>
    3fcb:	e8 10 d2 ff ff       	callq  11e0 <__stack_chk_fail@plt>
    3fd0:	48 83 c4 58          	add    $0x58,%rsp
    3fd4:	5b                   	pop    %rbx
    3fd5:	41 5c                	pop    %r12
    3fd7:	41 5d                	pop    %r13
    3fd9:	5d                   	pop    %rbp
    3fda:	c3                   	retq   
    3fdb:	90                   	nop

0000000000003fdc <_ZN9__gnu_cxx13new_allocatorINSt8__detail10_Hash_nodeISt4pairIKiiELb0EEEE10deallocateEPS6_m>:
    3fdc:	f3 0f 1e fa          	endbr64 
    3fe0:	55                   	push   %rbp
    3fe1:	48 89 e5             	mov    %rsp,%rbp
    3fe4:	48 83 ec 20          	sub    $0x20,%rsp
    3fe8:	48 89 7d f8          	mov    %rdi,-0x8(%rbp)
    3fec:	48 89 75 f0          	mov    %rsi,-0x10(%rbp)
    3ff0:	48 89 55 e8          	mov    %rdx,-0x18(%rbp)
    3ff4:	48 8b 45 f0          	mov    -0x10(%rbp),%rax
    3ff8:	48 89 c7             	mov    %rax,%rdi
    3ffb:	e8 a0 d1 ff ff       	callq  11a0 <_ZdlPv@plt>
    4000:	90                   	nop
    4001:	c9                   	leaveq 
    4002:	c3                   	retq   
    4003:	90                   	nop

0000000000004004 <_ZNSt10_HashtableIiSt4pairIKiiESaIS2_ENSt8__detail10_Select1stESt8equal_toIiESt4hashIiENS4_18_Mod_range_hashingENS4_20_Default_ranged_hashENS4_20_Prime_rehash_policyENS4_17_Hashtable_traitsILb0ELb0ELb1EEEE13_M_rehash_auxEmSt17integral_constantIbLb1EE>:
    4004:	f3 0f 1e fa          	endbr64 
    4008:	55                   	push   %rbp
    4009:	48 89 e5             	mov    %rsp,%rbp
    400c:	48 83 ec 40          	sub    $0x40,%rsp
    4010:	48 89 7d c8          	mov    %rdi,-0x38(%rbp)
    4014:	48 89 75 c0          	mov    %rsi,-0x40(%rbp)
    4018:	48 8b 55 c0          	mov    -0x40(%rbp),%rdx
    401c:	48 8b 45 c8          	mov    -0x38(%rbp),%rax
    4020:	48 89 d6             	mov    %rdx,%rsi
    4023:	48 89 c7             	mov    %rax,%rdi
    4026:	e8 8b 06 00 00       	callq  46b6 <_ZNSt10_HashtableIiSt4pairIKiiESaIS2_ENSt8__detail10_Select1stESt8equal_toIiESt4hashIiENS4_18_Mod_range_hashingENS4_20_Default_ranged_hashENS4_20_Prime_rehash_policyENS4_17_Hashtable_traitsILb0ELb0ELb1EEEE19_M_allocate_bucketsEm>
    402b:	48 89 45 e8          	mov    %rax,-0x18(%rbp)
    402f:	48 8b 45 c8          	mov    -0x38(%rbp),%rax
    4033:	48 89 c7             	mov    %rax,%rdi
    4036:	e8 87 e5 ff ff       	callq  25c2 <_ZNKSt10_HashtableIiSt4pairIKiiESaIS2_ENSt8__detail10_Select1stESt8equal_toIiESt4hashIiENS4_18_Mod_range_hashingENS4_20_Default_ranged_hashENS4_20_Prime_rehash_policyENS4_17_Hashtable_traitsILb0ELb0ELb1EEEE8_M_beginEv>
    403b:	48 89 45 d8          	mov    %rax,-0x28(%rbp)
    403f:	48 8b 45 c8          	mov    -0x38(%rbp),%rax
    4043:	48 c7 40 10 00 00 00 	movq   $0x0,0x10(%rax)
    404a:	00 
    404b:	48 c7 45 e0 00 00 00 	movq   $0x0,-0x20(%rbp)
    4052:	00 
    4053:	48 83 7d d8 00       	cmpq   $0x0,-0x28(%rbp)
    4058:	0f 84 f9 00 00 00    	je     4157 <_ZNSt10_HashtableIiSt4pairIKiiESaIS2_ENSt8__detail10_Select1stESt8equal_toIiESt4hashIiENS4_18_Mod_range_hashingENS4_20_Default_ranged_hashENS4_20_Prime_rehash_policyENS4_17_Hashtable_traitsILb0ELb0ELb1EEEE13_M_rehash_auxEmSt17integral_constantIbLb1EE+0x153>
    405e:	48 8b 45 d8          	mov    -0x28(%rbp),%rax
    4062:	48 89 c7             	mov    %rax,%rdi
    4065:	e8 4c f1 ff ff       	callq  31b6 <_ZNKSt8__detail10_Hash_nodeISt4pairIKiiELb0EE7_M_nextEv>
    406a:	48 89 45 f0          	mov    %rax,-0x10(%rbp)
    406e:	48 8b 55 c0          	mov    -0x40(%rbp),%rdx
    4072:	48 8b 4d d8          	mov    -0x28(%rbp),%rcx
    4076:	48 8b 45 c8          	mov    -0x38(%rbp),%rax
    407a:	48 89 ce             	mov    %rcx,%rsi
    407d:	48 89 c7             	mov    %rax,%rdi
    4080:	e8 13 05 00 00       	callq  4598 <_ZNKSt8__detail15_Hash_code_baseIiSt4pairIKiiENS_10_Select1stESt4hashIiENS_18_Mod_range_hashingENS_20_Default_ranged_hashELb0EE15_M_bucket_indexEPKNS_10_Hash_nodeIS3_Lb0EEEm>
    4085:	48 89 45 f8          	mov    %rax,-0x8(%rbp)
    4089:	48 8b 45 f8          	mov    -0x8(%rbp),%rax
    408d:	48 8d 14 c5 00 00 00 	lea    0x0(,%rax,8),%rdx
    4094:	00 
    4095:	48 8b 45 e8          	mov    -0x18(%rbp),%rax
    4099:	48 01 d0             	add    %rdx,%rax
    409c:	48 8b 00             	mov    (%rax),%rax
    409f:	48 85 c0             	test   %rax,%rax
    40a2:	75 69                	jne    410d <_ZNSt10_HashtableIiSt4pairIKiiESaIS2_ENSt8__detail10_Select1stESt8equal_toIiESt4hashIiENS4_18_Mod_range_hashingENS4_20_Default_ranged_hashENS4_20_Prime_rehash_policyENS4_17_Hashtable_traitsILb0ELb0ELb1EEEE13_M_rehash_auxEmSt17integral_constantIbLb1EE+0x109>
    40a4:	48 8b 45 c8          	mov    -0x38(%rbp),%rax
    40a8:	48 8b 50 10          	mov    0x10(%rax),%rdx
    40ac:	48 8b 45 d8          	mov    -0x28(%rbp),%rax
    40b0:	48 89 10             	mov    %rdx,(%rax)
    40b3:	48 8b 45 c8          	mov    -0x38(%rbp),%rax
    40b7:	48 8b 55 d8          	mov    -0x28(%rbp),%rdx
    40bb:	48 89 50 10          	mov    %rdx,0x10(%rax)
    40bf:	48 8b 45 f8          	mov    -0x8(%rbp),%rax
    40c3:	48 8d 14 c5 00 00 00 	lea    0x0(,%rax,8),%rdx
    40ca:	00 
    40cb:	48 8b 45 e8          	mov    -0x18(%rbp),%rax
    40cf:	48 01 d0             	add    %rdx,%rax
    40d2:	48 8b 55 c8          	mov    -0x38(%rbp),%rdx
    40d6:	48 83 c2 10          	add    $0x10,%rdx
    40da:	48 89 10             	mov    %rdx,(%rax)
    40dd:	48 8b 45 d8          	mov    -0x28(%rbp),%rax
    40e1:	48 8b 00             	mov    (%rax),%rax
    40e4:	48 85 c0             	test   %rax,%rax
    40e7:	74 1a                	je     4103 <_ZNSt10_HashtableIiSt4pairIKiiESaIS2_ENSt8__detail10_Select1stESt8equal_toIiESt4hashIiENS4_18_Mod_range_hashingENS4_20_Default_ranged_hashENS4_20_Prime_rehash_policyENS4_17_Hashtable_traitsILb0ELb0ELb1EEEE13_M_rehash_auxEmSt17integral_constantIbLb1EE+0xff>
    40e9:	48 8b 45 e0          	mov    -0x20(%rbp),%rax
    40ed:	48 8d 14 c5 00 00 00 	lea    0x0(,%rax,8),%rdx
    40f4:	00 
    40f5:	48 8b 45 e8          	mov    -0x18(%rbp),%rax
    40f9:	48 01 c2             	add    %rax,%rdx
    40fc:	48 8b 45 d8          	mov    -0x28(%rbp),%rax
    4100:	48 89 02             	mov    %rax,(%rdx)
    4103:	48 8b 45 f8          	mov    -0x8(%rbp),%rax
    4107:	48 89 45 e0          	mov    %rax,-0x20(%rbp)
    410b:	eb 3d                	jmp    414a <_ZNSt10_HashtableIiSt4pairIKiiESaIS2_ENSt8__detail10_Select1stESt8equal_toIiESt4hashIiENS4_18_Mod_range_hashingENS4_20_Default_ranged_hashENS4_20_Prime_rehash_policyENS4_17_Hashtable_traitsILb0ELb0ELb1EEEE13_M_rehash_auxEmSt17integral_constantIbLb1EE+0x146>
    410d:	48 8b 45 f8          	mov    -0x8(%rbp),%rax
    4111:	48 8d 14 c5 00 00 00 	lea    0x0(,%rax,8),%rdx
    4118:	00 
    4119:	48 8b 45 e8          	mov    -0x18(%rbp),%rax
    411d:	48 01 d0             	add    %rdx,%rax
    4120:	48 8b 00             	mov    (%rax),%rax
    4123:	48 8b 10             	mov    (%rax),%rdx
    4126:	48 8b 45 d8          	mov    -0x28(%rbp),%rax
    412a:	48 89 10             	mov    %rdx,(%rax)
    412d:	48 8b 45 f8          	mov    -0x8(%rbp),%rax
    4131:	48 8d 14 c5 00 00 00 	lea    0x0(,%rax,8),%rdx
    4138:	00 
    4139:	48 8b 45 e8          	mov    -0x18(%rbp),%rax
    413d:	48 01 d0             	add    %rdx,%rax
    4140:	48 8b 00             	mov    (%rax),%rax
    4143:	48 8b 55 d8          	mov    -0x28(%rbp),%rdx
    4147:	48 89 10             	mov    %rdx,(%rax)
    414a:	48 8b 45 f0          	mov    -0x10(%rbp),%rax
    414e:	48 89 45 d8          	mov    %rax,-0x28(%rbp)
    4152:	e9 fc fe ff ff       	jmpq   4053 <_ZNSt10_HashtableIiSt4pairIKiiESaIS2_ENSt8__detail10_Select1stESt8equal_toIiESt4hashIiENS4_18_Mod_range_hashingENS4_20_Default_ranged_hashENS4_20_Prime_rehash_policyENS4_17_Hashtable_traitsILb0ELb0ELb1EEEE13_M_rehash_auxEmSt17integral_constantIbLb1EE+0x4f>
    4157:	48 8b 45 c8          	mov    -0x38(%rbp),%rax
    415b:	48 89 c7             	mov    %rax,%rdi
    415e:	e8 ff dd ff ff       	callq  1f62 <_ZNSt10_HashtableIiSt4pairIKiiESaIS2_ENSt8__detail10_Select1stESt8equal_toIiESt4hashIiENS4_18_Mod_range_hashingENS4_20_Default_ranged_hashENS4_20_Prime_rehash_policyENS4_17_Hashtable_traitsILb0ELb0ELb1EEEE21_M_deallocate_bucketsEv>
    4163:	48 8b 45 c8          	mov    -0x38(%rbp),%rax
    4167:	48 8b 55 c0          	mov    -0x40(%rbp),%rdx
    416b:	48 89 50 08          	mov    %rdx,0x8(%rax)
    416f:	48 8b 45 c8          	mov    -0x38(%rbp),%rax
    4173:	48 8b 55 e8          	mov    -0x18(%rbp),%rdx
    4177:	48 89 10             	mov    %rdx,(%rax)
    417a:	90                   	nop
    417b:	c9                   	leaveq 
    417c:	c3                   	retq   

000000000000417d <_ZNSt8__detail21_Hashtable_ebo_helperILi0ENS_10_Select1stELb1EE6_S_getERS2_>:
    417d:	f3 0f 1e fa          	endbr64 
    4181:	55                   	push   %rbp
    4182:	48 89 e5             	mov    %rsp,%rbp
    4185:	48 89 7d f8          	mov    %rdi,-0x8(%rbp)
    4189:	48 8b 45 f8          	mov    -0x8(%rbp),%rax
    418d:	5d                   	pop    %rbp
    418e:	c3                   	retq   

000000000000418f <_ZSt7forwardIRSt4pairIKiiEEOT_RNSt16remove_referenceIS4_E4typeE>:
    418f:	f3 0f 1e fa          	endbr64 
    4193:	55                   	push   %rbp
    4194:	48 89 e5             	mov    %rsp,%rbp
    4197:	48 89 7d f8          	mov    %rdi,-0x8(%rbp)
    419b:	48 8b 45 f8          	mov    -0x8(%rbp),%rax
    419f:	5d                   	pop    %rbp
    41a0:	c3                   	retq   

00000000000041a1 <_ZSt3getILm0EKiiERNSt13tuple_elementIXT_ESt4pairIT0_T1_EE4typeERS5_>:
    41a1:	f3 0f 1e fa          	endbr64 
    41a5:	55                   	push   %rbp
    41a6:	48 89 e5             	mov    %rsp,%rbp
    41a9:	48 83 ec 10          	sub    $0x10,%rsp
    41ad:	48 89 7d f8          	mov    %rdi,-0x8(%rbp)
    41b1:	48 8b 45 f8          	mov    -0x8(%rbp),%rax
    41b5:	48 89 c7             	mov    %rax,%rdi
    41b8:	e8 49 05 00 00       	callq  4706 <_ZNSt10__pair_getILm0EE5__getIKiiEERT_RSt4pairIS3_T0_E>
    41bd:	c9                   	leaveq 
    41be:	c3                   	retq   
    41bf:	90                   	nop

00000000000041c0 <_ZNSt10_Head_baseILm0ERKiLb0EEC1ES1_>:
    41c0:	f3 0f 1e fa          	endbr64 
    41c4:	55                   	push   %rbp
    41c5:	48 89 e5             	mov    %rsp,%rbp
    41c8:	48 89 7d f8          	mov    %rdi,-0x8(%rbp)
    41cc:	48 89 75 f0          	mov    %rsi,-0x10(%rbp)
    41d0:	48 8b 45 f8          	mov    -0x8(%rbp),%rax
    41d4:	48 8b 55 f0          	mov    -0x10(%rbp),%rdx
    41d8:	48 89 10             	mov    %rdx,(%rax)
    41db:	90                   	nop
    41dc:	5d                   	pop    %rbp
    41dd:	c3                   	retq   

00000000000041de <_ZNSt5tupleIJRKiEEC1EOS2_>:
    41de:	f3 0f 1e fa          	endbr64 
    41e2:	55                   	push   %rbp
    41e3:	48 89 e5             	mov    %rsp,%rbp
    41e6:	48 83 ec 10          	sub    $0x10,%rsp
    41ea:	48 89 7d f8          	mov    %rdi,-0x8(%rbp)
    41ee:	48 89 75 f0          	mov    %rsi,-0x10(%rbp)
    41f2:	48 8b 45 f8          	mov    -0x8(%rbp),%rax
    41f6:	48 8b 55 f0          	mov    -0x10(%rbp),%rdx
    41fa:	48 89 d6             	mov    %rdx,%rsi
    41fd:	48 89 c7             	mov    %rax,%rdi
    4200:	e8 13 05 00 00       	callq  4718 <_ZNSt11_Tuple_implILm0EJRKiEEC1EOS2_>
    4205:	90                   	nop
    4206:	c9                   	leaveq 
    4207:	c3                   	retq   

0000000000004208 <_ZN9__gnu_cxx13new_allocatorINSt8__detail10_Hash_nodeISt4pairIKiiELb0EEEE9constructIS5_JRKSt21piecewise_construct_tSt5tupleIJRS4_EESC_IJEEEEEvPT_DpOT0_>:
    4208:	f3 0f 1e fa          	endbr64 
    420c:	55                   	push   %rbp
    420d:	48 89 e5             	mov    %rsp,%rbp
    4210:	41 55                	push   %r13
    4212:	41 54                	push   %r12
    4214:	53                   	push   %rbx
    4215:	48 83 ec 58          	sub    $0x58,%rsp
    4219:	48 89 7d b8          	mov    %rdi,-0x48(%rbp)
    421d:	48 89 75 b0          	mov    %rsi,-0x50(%rbp)
    4221:	48 89 55 a8          	mov    %rdx,-0x58(%rbp)
    4225:	48 89 4d a0          	mov    %rcx,-0x60(%rbp)
    4229:	4c 89 45 98          	mov    %r8,-0x68(%rbp)
    422d:	64 48 8b 04 25 28 00 	mov    %fs:0x28,%rax
    4234:	00 00 
    4236:	48 89 45 d8          	mov    %rax,-0x28(%rbp)
    423a:	31 c0                	xor    %eax,%eax
    423c:	48 8b 45 a8          	mov    -0x58(%rbp),%rax
    4240:	48 89 c7             	mov    %rax,%rdi
    4243:	e8 3e f3 ff ff       	callq  3586 <_ZSt7forwardIRKSt21piecewise_construct_tEOT_RNSt16remove_referenceIS3_E4typeE>
    4248:	48 8b 45 a0          	mov    -0x60(%rbp),%rax
    424c:	48 89 c7             	mov    %rax,%rdi
    424f:	e8 1e f6 ff ff       	callq  3872 <_ZSt7forwardISt5tupleIJRKiEEEOT_RNSt16remove_referenceIS4_E4typeE>
    4254:	48 89 c2             	mov    %rax,%rdx
    4257:	48 8d 45 d0          	lea    -0x30(%rbp),%rax
    425b:	48 89 d6             	mov    %rdx,%rsi
    425e:	48 89 c7             	mov    %rax,%rdi
    4261:	e8 78 ff ff ff       	callq  41de <_ZNSt5tupleIJRKiEEC1EOS2_>
    4266:	4c 8d 6d d0          	lea    -0x30(%rbp),%r13
    426a:	48 8b 45 98          	mov    -0x68(%rbp),%rax
    426e:	48 89 c7             	mov    %rax,%rdi
    4271:	e8 34 f3 ff ff       	callq  35aa <_ZSt7forwardISt5tupleIJEEEOT_RNSt16remove_referenceIS2_E4typeE>
    4276:	48 8b 5d b0          	mov    -0x50(%rbp),%rbx
    427a:	48 89 de             	mov    %rbx,%rsi
    427d:	bf 08 00 00 00       	mov    $0x8,%edi
    4282:	e8 09 d3 ff ff       	callq  1590 <_ZnwmPv>
    4287:	49 89 c4             	mov    %rax,%r12
    428a:	4c 89 ee             	mov    %r13,%rsi
    428d:	4c 89 e7             	mov    %r12,%rdi
    4290:	e8 c3 04 00 00       	callq  4758 <_ZNSt4pairIKiiEC1IJRS0_EJEEESt21piecewise_construct_tSt5tupleIJDpT_EES5_IJDpT0_EE>
    4295:	eb 1d                	jmp    42b4 <_ZN9__gnu_cxx13new_allocatorINSt8__detail10_Hash_nodeISt4pairIKiiELb0EEEE9constructIS5_JRKSt21piecewise_construct_tSt5tupleIJRS4_EESC_IJEEEEEvPT_DpOT0_+0xac>
    4297:	f3 0f 1e fa          	endbr64 
    429b:	49 89 c5             	mov    %rax,%r13
    429e:	48 89 de             	mov    %rbx,%rsi
    42a1:	4c 89 e7             	mov    %r12,%rdi
    42a4:	e8 fd d2 ff ff       	callq  15a6 <_ZdlPvS_>
    42a9:	4c 89 e8             	mov    %r13,%rax
    42ac:	48 89 c7             	mov    %rax,%rdi
    42af:	e8 9c cf ff ff       	callq  1250 <_Unwind_Resume@plt>
    42b4:	48 8b 45 d8          	mov    -0x28(%rbp),%rax
    42b8:	64 48 33 04 25 28 00 	xor    %fs:0x28,%rax
    42bf:	00 00 
    42c1:	74 05                	je     42c8 <_ZN9__gnu_cxx13new_allocatorINSt8__detail10_Hash_nodeISt4pairIKiiELb0EEEE9constructIS5_JRKSt21piecewise_construct_tSt5tupleIJRS4_EESC_IJEEEEEvPT_DpOT0_+0xc0>
    42c3:	e8 18 cf ff ff       	callq  11e0 <__stack_chk_fail@plt>
    42c8:	48 83 c4 58          	add    $0x58,%rsp
    42cc:	5b                   	pop    %rbx
    42cd:	41 5c                	pop    %r12
    42cf:	41 5d                	pop    %r13
    42d1:	5d                   	pop    %rbp
    42d2:	c3                   	retq   
    42d3:	90                   	nop

00000000000042d4 <_ZNKSt6vectorIiSaIiEE8max_sizeEv>:
    42d4:	f3 0f 1e fa          	endbr64 
    42d8:	55                   	push   %rbp
    42d9:	48 89 e5             	mov    %rsp,%rbp
    42dc:	48 83 ec 10          	sub    $0x10,%rsp
    42e0:	48 89 7d f8          	mov    %rdi,-0x8(%rbp)
    42e4:	48 8b 45 f8          	mov    -0x8(%rbp),%rax
    42e8:	48 89 c7             	mov    %rax,%rdi
    42eb:	e8 ba 04 00 00       	callq  47aa <_ZNKSt12_Vector_baseIiSaIiEE19_M_get_Tp_allocatorEv>
    42f0:	48 89 c7             	mov    %rax,%rdi
    42f3:	e8 79 f8 ff ff       	callq  3b71 <_ZNSt6vectorIiSaIiEE11_S_max_sizeERKS0_>
    42f8:	c9                   	leaveq 
    42f9:	c3                   	retq   

00000000000042fa <_ZNSt6vectorIiSaIiEE14_S_do_relocateEPiS2_S2_RS0_St17integral_constantIbLb1EE>:
    42fa:	f3 0f 1e fa          	endbr64 
    42fe:	55                   	push   %rbp
    42ff:	48 89 e5             	mov    %rsp,%rbp
    4302:	48 83 ec 20          	sub    $0x20,%rsp
    4306:	48 89 7d f8          	mov    %rdi,-0x8(%rbp)
    430a:	48 89 75 f0          	mov    %rsi,-0x10(%rbp)
    430e:	48 89 55 e8          	mov    %rdx,-0x18(%rbp)
    4312:	48 89 4d e0          	mov    %rcx,-0x20(%rbp)
    4316:	48 8b 4d e0          	mov    -0x20(%rbp),%rcx
    431a:	48 8b 55 e8          	mov    -0x18(%rbp),%rdx
    431e:	48 8b 75 f0          	mov    -0x10(%rbp),%rsi
    4322:	48 8b 45 f8          	mov    -0x8(%rbp),%rax
    4326:	48 89 c7             	mov    %rax,%rdi
    4329:	e8 8e 04 00 00       	callq  47bc <_ZSt12__relocate_aIPiS0_SaIiEET0_T_S3_S2_RT1_>
    432e:	c9                   	leaveq 
    432f:	c3                   	retq   

0000000000004330 <_ZSt32__make_move_if_noexcept_iteratorIiSt13move_iteratorIPiEET0_PT_>:
    4330:	f3 0f 1e fa          	endbr64 
    4334:	55                   	push   %rbp
    4335:	48 89 e5             	mov    %rsp,%rbp
    4338:	48 83 ec 20          	sub    $0x20,%rsp
    433c:	48 89 7d e8          	mov    %rdi,-0x18(%rbp)
    4340:	64 48 8b 04 25 28 00 	mov    %fs:0x28,%rax
    4347:	00 00 
    4349:	48 89 45 f8          	mov    %rax,-0x8(%rbp)
    434d:	31 c0                	xor    %eax,%eax
    434f:	48 8b 55 e8          	mov    -0x18(%rbp),%rdx
    4353:	48 8d 45 f0          	lea    -0x10(%rbp),%rax
    4357:	48 89 d6             	mov    %rdx,%rsi
    435a:	48 89 c7             	mov    %rax,%rdi
    435d:	e8 c2 04 00 00       	callq  4824 <_ZNSt13move_iteratorIPiEC1ES0_>
    4362:	48 8b 45 f0          	mov    -0x10(%rbp),%rax
